Certificate:
    Data:
        Version: 3 (0x2)
        Serial Number: 537462053 (0x20090525)
        Signature Algorithm: dsaWithSHA1
        Issuer: C=CA, ST=BC, O=juliusdavies.ca, OU=not-yet-commons-ssl, CN=dsa-intermediate/emailAddress=juliusdavies@gmail.com
        Validity
            Not Before: May 25 21:44:31 2009 GMT
            Not After : May 25 21:44:31 2049 GMT
        Subject: C=CA, ST=BC, O=juliusdavies.ca, OU=not-yet-commons-ssl, CN=test/emailAddress=juliusdavies@gmail.com
        Subject Public Key Info:
            Public Key Algorithm: rsaEncryption
            RSA Public Key: (2048 bit)
                Modulus (2048 bit):
                    00:c8:63:af:96:82:3e:8c:a9:d1:1d:62:ae:85:80:
                    7e:71:32:04:c1:98:5a:80:a2:74:7f:7a:c8:63:c5:
                    8d:82:e8:c1:ec:f9:69:82:98:d4:83:8a:4d:8d:81:
                    95:88:68:e0:ef:38:5f:6e:38:42:b6:53:46:5f:24:
                    41:b6:2d:c6:71:a1:e2:04:82:0f:e6:7c:82:36:7f:
                    80:cb:cb:52:58:6a:39:bf:96:5c:f0:14:1c:c0:77:
                    f4:64:72:cd:ea:c0:fd:9b:6b:95:4a:9f:fa:52:a8:
                    d2:e5:9c:a1:cc:5e:45:ce:fb:d4:a3:7c:70:f1:f7:
                    9c:76:74:ad:5d:07:c7:86:40:67:2e:94:e3:1c:4e:
                    6d:ee:2b:b5:25:58:d3:b8:4d:29:70:1b:da:87:67:
                    56:a8:33:71:88:83:90:b5:7c:8a:5b:c4:9a:83:56:
                    31:6a:e9:f1:40:6a:91:37:29:12:16:21:09:8a:77:
                    71:39:20:27:03:12:ba:ab:fc:06:a9:c6:77:ce:f1:
                    41:4d:c5:55:92:38:b5:bb:64:07:e2:b3:8c:3f:73:
                    cf:c4:02:0c:90:1f:0e:36:47:47:4d:ca:35:0e:66:
                    c4:e8:17:c3:1c:0a:c3:a9:46:31:a8:95:25:3c:69:
                    4c:aa:b2:9b:dd:f0:85:89:3d:de:5d:e8:70:47:b9:
                    e5:cd
                Exponent: 65537 (0x10001)
        X509v3 extensions:
            X509v3 Basic Constraints: 
                CA:FALSE
            Netscape Comment: 
                OpenSSL Generated Certificate
            X509v3 Subject Key Identifier: 
                9F:14:77:BF:3F:3A:B6:CA:38:82:42:48:16:2C:DA:D0:CB:5E:87:D8
            X509v3 Authority Key Identifier: 
                keyid:94:A7:CC:B9:AB:D7:48:81:B3:3A:71:6E:2B:F4:24:FE:2A:A4:C0:39

    Signature Algorithm: dsaWithSHA1
        30:2d:02:15:00:86:ec:d5:ef:f1:75:60:a2:09:36:40:ff:ca:
        83:67:6a:08:5d:d4:1e:02:14:51:6c:df:41:80:43:74:2a:1c:
        48:c2:08:85:5b:9b:7d:07:46:6b:84
-----BEGIN CERTIFICATE-----
MIIDPDCCAvugAwIBAgIEIAkFJTAJBgcqhkjOOAQDMIGUMQswCQYDVQQGEwJDQTEL
MAkGA1UECBMCQkMxGDAWBgNVBAoTD2p1bGl1c2Rhdmllcy5jYTEcMBoGA1UECxMT
bm90LXlldC1jb21tb25zLXNzbDEZMBcGA1UEAxMQZHNhLWludGVybWVkaWF0ZTEl
MCMGCSqGSIb3DQEJARYWanVsaXVzZGF2aWVzQGdtYWlsLmNvbTAeFw0wOTA1MjUy
MTQ0MzFaFw00OTA1MjUyMTQ0MzFaMIGIMQswCQYDVQQGEwJDQTELMAkGA1UECBMC
QkMxGDAWBgNVBAoTD2p1bGl1c2Rhdmllcy5jYTEcMBoGA1UECxMTbm90LXlldC1j
b21tb25zLXNzbDENMAsGA1UEAxMEdGVzdDElMCMGCSqGSIb3DQEJARYWanVsaXVz
ZGF2aWVzQGdtYWlsLmNvbTCCASIwDQYJKoZIhvcNAQEBBQADggEPADCCAQoCggEB
AMhjr5aCPoyp0R1iroWAfnEyBMGYWoCidH96yGPFjYLowez5aYKY1IOKTY2BlYho
4O84X244QrZTRl8kQbYtxnGh4gSCD+Z8gjZ/gMvLUlhqOb+WXPAUHMB39GRyzerA
/ZtrlUqf+lKo0uWcocxeRc771KN8cPH3nHZ0rV0Hx4ZAZy6U4xxObe4rtSVY07hN
KXAb2odnVqgzcYiDkLV8ilvEmoNWMWrp8UBqkTcpEhYhCYp3cTkgJwMSuqv8BqnG
d87xQU3FVZI4tbtkB+KzjD9zz8QCDJAfDjZHR03KNQ5mxOgXwxwKw6lGMaiVJTxp
TKqym93whYk93l3ocEe55c0CAwEAAaN7MHkwCQYDVR0TBAIwADAsBglghkgBhvhC
AQ0EHxYdT3BlblNTTCBHZW5lcmF0ZWQgQ2VydGlmaWNhdGUwHQYDVR0OBBYEFJ8U
d78/OrbKOIJCSBYs2tDLXofYMB8GA1UdIwQYMBaAFJSnzLmr10iBszpxbiv0JP4q
pMA5MAkGByqGSM44BAMDMAAwLQIVAIbs1e/xdWCiCTZA/8qDZ2oIXdQeAhRRbN9B
gEN0KhxIwgiFW5t9B0ZrhA==
-----END CERTIFICATE-----
Certificate:
    Data:
        Version: 3 (0x2)
        Serial Number: 537462055 (0x20090527)
        Signature Algorithm: sha1WithRSAEncryption
        Issuer: C=CA, ST=BC, O=juliusdavies.ca, OU=not-yet-commons-ssl, CN=root/emailAddress=juliusdavies@gmail.com
        Validity
            Not Before: May 25 21:44:31 2009 GMT
            Not After : May 25 21:44:31 2049 GMT
        Subject: C=CA, ST=BC, O=juliusdavies.ca, OU=not-yet-commons-ssl, CN=dsa-intermediate/emailAddress=juliusdavies@gmail.com
        Subject Public Key Info:
            Public Key Algorithm: dsaEncryption
            DSA Public Key:
                pub: 
                    7a:a9:65:fb:76:ba:be:f3:fa:94:59:52:ed:4e:fc:
                    e4:70:5e:8f:7c:14:e7:73:d6:d2:36:6b:62:d2:56:
                    c9:6e:7a:91:63:72:4e:a9:ce:2e:eb:38:5e:c4:72:
                    f6:2c:52:aa:51:f4:ce:3b:28:55:39:c3:ad:5d:52:
                    fa:ac:0c:32:48:fc:00:9f:c3:d9:75:09:8d:82:e0:
                    cb:07:65:29:25:7a:34:2e:bb:a0:2d:30:91:59:0e:
                    ce:82:fb:2d:ad:a5:b2:b9:2b:ec:6b:b1:04:07:0c:
                    52:16:7d:6c:0c:b2:64:c7:c6:cb:ab:18:ab:a6:fa:
                    3e:31:f3:8f:49:75:33:69:d3:2a:2a:e7:2c:38:b5:
                    d6:7d:33:94:ba:a6:3e:2f:e5:3b:cc:4a:27:d1:59:
                    f3:9c:71:b1:46:64:3f:28:f1:33:d1:bc:c2:8b:47:
                    92:2d:c6:1f:fb:23:34:56:f1:6e:18:8e:7c:0b:75:
                    42:8a:bb:92:44:04:58:41:d1:9b:6e:d6:14:98:94:
                    3d:77:8d:93:d3:1f:e9:7b:a7:71:94:10:ee:e9:d3:
                    5a:4a:b8:91:61:35:4c:00:76:f2:b2:3a:bd:9f:42:
                    f9:f0:8e:da:bd:8c:60:fd:7d:65:85:98:c5:7d:42:
                    b9:27:de:09:0a:1c:85:a7:63:e5:71:3c:ab:78:de:
                    cf
                P:   
                    00:8f:5a:80:34:53:e1:52:68:8c:cf:9b:d5:7a:01:
                    60:57:63:f9:f8:01:55:9e:55:17:7f:f4:cc:cd:d7:
                    fb:f7:1e:36:00:1c:ae:5c:70:e8:1b:33:ef:b8:8d:
                    aa:69:2a:66:f0:48:fd:bb:25:82:eb:56:be:ac:ca:
                    49:6e:7f:17:fd:3b:61:57:a7:14:c1:eb:99:5d:6b:
                    82:03:db:1c:18:2a:25:05:19:ec:34:b8:c3:1b:2c:
                    69:89:37:7b:85:9b:c0:a9:39:84:43:f1:60:0b:91:
                    50:e0:b5:93:3c:ad:1c:b8:33:4e:9b:00:ed:cd:60:
                    59:9b:57:04:7b:c0:fb:2d:49:45:e3:ce:c0:8a:aa:
                    4d:07:3a:43:a3:3d:06:70:66:fc:9f:b2:8f:d6:c5:
                    1f:a5:7b:00:36:a9:42:5e:50:db:38:34:8c:4a:c6:
                    f6:3a:58:9a:a6:57:93:f7:4e:55:8b:46:f0:b0:1b:
                    9c:a0:cb:fc:57:91:be:6d:47:56:a9:d1:46:cd:43:
                    7b:ff:24:96:0a:dd:d7:d8:b7:58:8e:6a:a1:eb:2a:
                    ba:40:0a:f6:d1:53:7c:84:06:fc:14:1c:d5:33:79:
                    88:bb:4f:fa:b5:87:35:61:0d:b0:7b:07:bb:74:7c:
                    30:a7:a3:60:7d:76:a6:d1:46:2b:84:a2:9a:28:61:
                    f2:89
                Q:   
                    00:bf:87:b6:dd:a6:62:0f:88:a2:44:a5:99:ac:b9:
                    12:82:05:7b:2e:af
                G:   
                    00:86:37:bd:1d:60:12:25:f5:01:7f:7e:e0:e7:de:
                    26:f4:3d:d4:75:fe:91:41:41:b3:c6:70:7f:71:c6:
                    5e:4e:c1:0f:3e:cc:be:9c:0b:df:b4:8f:6e:2a:0f:
                    90:5b:20:14:75:c7:31:13:e2:d8:73:73:76:b6:c4:
                    f5:5f:ac:b4:2a:26:4e:8c:af:87:2e:f5:1d:78:69:
                    15:b5:b4:b7:d3:52:ec:f4:c8:6e:c5:65:bd:88:e5:
                    c4:da:0c:48:ac:d3:2d:a2:da:b0:72:75:09:1d:aa:
                    d9:64:80:b7:18:31:54:07:d6:7a:8b:f3:be:b7:22:
                    87:1c:3a:c7:2f:a9:4b:8d:79:06:a1:ff:1c:db:f3:
                    17:9b:32:a0:61:20:6e:37:92:eb:27:a1:6f:b8:22:
                    0e:26:4d:71:9a:b3:a0:9a:fb:fb:91:68:5b:52:3b:
                    20:75:d5:36:a6:aa:c3:dc:52:01:87:06:58:68:62:
                    20:b8:aa:bd:2b:c9:58:60:b7:02:2e:c4:4f:bf:ec:
                    b7:43:13:3f:90:51:65:65:a9:ba:48:74:9e:3c:ad:
                    93:b6:00:3f:93:11:e7:cd:ea:5f:11:44:b2:4f:d1:
                    e3:fd:19:a8:bc:4a:c6:ae:4c:ec:83:85:fa:98:ed:
                    0b:a3:8f:a0:35:38:d4:9f:96:fd:f3:b2:b5:80:d5:
                    1e:a4
        X509v3 extensions:
            X509v3 Subject Key Identifier: 
                94:A7:CC:B9:AB:D7:48:81:B3:3A:71:6E:2B:F4:24:FE:2A:A4:C0:39
            X509v3 Authority Key Identifier: 
                keyid:07:D8:71:DB:2B:1A:9D:AE:C2:07:30:2E:00:AC:58:63:9B:20:7D:A6
                DirName:/C=CA/ST=BC/O=juliusdavies.ca/OU=not-yet-commons-ssl/CN=root/emailAddress=juliusdavies@gmail.com
                serial:20:09:05:25

            X509v3 Basic Constraints: 
                CA:TRUE
    Signature Algorithm: sha1WithRSAEncryption
        30:75:fb:1e:e2:d0:ff:18:3a:de:7d:49:8a:20:33:bc:0e:0c:
        ad:7a:68:f8:57:91:3a:bd:2b:07:a7:25:a6:c6:d0:f7:30:57:
        73:a3:34:af:ee:d3:5d:06:9f:80:f5:41:b7:7f:e8:0e:e2:28:
        6c:a5:d7:82:9b:81:89:85:9f:47:5d:af:17:ab:f6:e1:02:4c:
        01:2b:07:7c:2b:e1:77:1c:a4:e9:a6:89:97:50:49:87:73:04:
        6e:32:50:f5:b7:be:f2:60:b3:9c:5f:b4:2a:d2:2f:c0:0b:82:
        47:71:70:62:cc:98:ad:47:20:58:61:d6:c0:c5:30:65:3f:97:
        43:47:50:cb:90:4c:c3:7c:50:c4:28:27:b7:2d:c8:2a:61:40:
        18:7e:fa:ce:03:39:20:f9:96:a2:da:1c:fe:5e:c7:9f:f1:bc:
        98:18:c1:63:e6:f6:35:35:d8:5d:18:2e:ef:87:7d:af:00:a3:
        bc:12:18:c3:11:1e:8a:6d:bf:5d:10:87:6f:79:f3:8f:11:9d:
        cb:0d:fe:f6:fe:4f:d0:2b:de:8e:3a:da:f3:46:11:ca:12:bb:
        ca:22:67:05:45:e6:fd:9f:71:09:98:0b:1e:cf:51:73:b2:ad:
        48:f9:06:2a:b5:5c:9f:f3:97:e0:8e:a3:df:57:1c:a7:94:ca:
        f2:97:8e:56
-----BEGIN CERTIFICATE-----
MIIGoTCCBYmgAwIBAgIEIAkFJzANBgkqhkiG9w0BAQUFADCBiDELMAkGA1UEBhMC
Q0ExCzAJBgNVBAgTAkJDMRgwFgYDVQQKEw9qdWxpdXNkYXZpZXMuY2ExHDAaBgNV
BAsTE25vdC15ZXQtY29tbW9ucy1zc2wxDTALBgNVBAMTBHJvb3QxJTAjBgkqhkiG
9w0BCQEWFmp1bGl1c2Rhdmllc0BnbWFpbC5jb20wHhcNMDkwNTI1MjE0NDMxWhcN
NDkwNTI1MjE0NDMxWjCBlDELMAkGA1UEBhMCQ0ExCzAJBgNVBAgTAkJDMRgwFgYD
VQQKEw9qdWxpdXNkYXZpZXMuY2ExHDAaBgNVBAsTE25vdC15ZXQtY29tbW9ucy1z
c2wxGTAXBgNVBAMTEGRzYS1pbnRlcm1lZGlhdGUxJTAjBgkqhkiG9w0BCQEWFmp1
bGl1c2Rhdmllc0BnbWFpbC5jb20wggM7MIICLgYHKoZIzjgEATCCAiECggEBAI9a
gDRT4VJojM+b1XoBYFdj+fgBVZ5VF3/0zM3X+/ceNgAcrlxw6Bsz77iNqmkqZvBI
/bslgutWvqzKSW5/F/07YVenFMHrmV1rggPbHBgqJQUZ7DS4wxssaYk3e4WbwKk5
hEPxYAuRUOC1kzytHLgzTpsA7c1gWZtXBHvA+y1JRePOwIqqTQc6Q6M9BnBm/J+y
j9bFH6V7ADapQl5Q2zg0jErG9jpYmqZXk/dOVYtG8LAbnKDL/FeRvm1HVqnRRs1D
e/8klgrd19i3WI5qoesqukAK9tFTfIQG/BQc1TN5iLtP+rWHNWENsHsHu3R8MKej
YH12ptFGK4Simihh8okCFQC/h7bdpmIPiKJEpZmsuRKCBXsurwKCAQEAhje9HWAS
JfUBf37g594m9D3Udf6RQUGzxnB/ccZeTsEPPsy+nAvftI9uKg+QWyAUdccxE+LY
c3N2tsT1X6y0KiZOjK+HLvUdeGkVtbS301Ls9MhuxWW9iOXE2gxIrNMtotqwcnUJ
HarZZIC3GDFUB9Z6i/O+tyKHHDrHL6lLjXkGof8c2/MXmzKgYSBuN5LrJ6FvuCIO
Jk1xmrOgmvv7kWhbUjsgddU2pqrD3FIBhwZYaGIguKq9K8lYYLcCLsRPv+y3QxM/
kFFlZam6SHSePK2TtgA/kxHnzepfEUSyT9Hj/RmovErGrkzsg4X6mO0Lo4+gNTjU
n5b987K1gNUepAOCAQUAAoIBAHqpZft2ur7z+pRZUu1O/ORwXo98FOdz1tI2a2LS
VsluepFjck6pzi7rOF7EcvYsUqpR9M47KFU5w61dUvqsDDJI/ACfw9l1CY2C4MsH
ZSklejQuu6AtMJFZDs6C+y2tpbK5K+xrsQQHDFIWfWwMsmTHxsurGKum+j4x849J
dTNp0yoq5yw4tdZ9M5S6pj4v5TvMSifRWfOccbFGZD8o8TPRvMKLR5Itxh/7IzRW
8W4YjnwLdUKKu5JEBFhB0Ztu1hSYlD13jZPTH+l7p3GUEO7p01pKuJFhNUwAdvKy
Or2fQvnwjtq9jGD9fWWFmMV9Qrkn3gkKHIWnY+VxPKt43s+jgeswgegwHQYDVR0O
BBYEFJSnzLmr10iBszpxbiv0JP4qpMA5MIG4BgNVHSMEgbAwga2AFAfYcdsrGp2u
wgcwLgCsWGObIH2moYGOpIGLMIGIMQswCQYDVQQGEwJDQTELMAkGA1UECBMCQkMx
GDAWBgNVBAoTD2p1bGl1c2Rhdmllcy5jYTEcMBoGA1UECxMTbm90LXlldC1jb21t
b25zLXNzbDENMAsGA1UEAxMEcm9vdDElMCMGCSqGSIb3DQEJARYWanVsaXVzZGF2
aWVzQGdtYWlsLmNvbYIEIAkFJTAMBgNVHRMEBTADAQH/MA0GCSqGSIb3DQEBBQUA
A4IBAQAwdfse4tD/GDrefUmKIDO8Dgytemj4V5E6vSsHpyWmxtD3MFdzozSv7tNd
Bp+A9UG3f+gO4ihspdeCm4GJhZ9HXa8Xq/bhAkwBKwd8K+F3HKTppomXUEmHcwRu
MlD1t77yYLOcX7Qq0i/AC4JHcXBizJitRyBYYdbAxTBlP5dDR1DLkEzDfFDEKCe3
LcgqYUAYfvrOAzkg+Zai2hz+Xsef8byYGMFj5vY1NdhdGC7vh32vAKO8EhjDER6K
bb9dEIdvefOPEZ3LDf72/k/QK96OOtrzRhHKErvKImcFReb9n3EJmAsez1Fzsq1I
+QYqtVyf85fgjqPfVxynlMryl45W
-----END CERTIFICATE-----
Certificate:
    Data:
        Version: 3 (0x2)
        Serial Number: 537462053 (0x20090525)
        Signature Algorithm: sha1WithRSAEncryption
        Issuer: C=CA, ST=BC, O=juliusdavies.ca, OU=not-yet-commons-ssl, CN=root/emailAddress=juliusdavies@gmail.com
        Validity
            Not Before: May 25 21:44:28 2009 GMT
            Not After : May 25 21:44:28 2049 GMT
        Subject: C=CA, ST=BC, O=juliusdavies.ca, OU=not-yet-commons-ssl, CN=root/emailAddress=juliusdavies@gmail.com
        Subject Public Key Info:
            Public Key Algorithm: rsaEncryption
            RSA Public Key: (2048 bit)
                Modulus (2048 bit):
                    00:b9:db:04:16:8c:41:eb:91:c4:b8:d1:1a:73:28:
                    59:09:b8:7a:b5:05:40:db:4f:2b:63:7b:bf:01:70:
                    e1:0d:4c:09:3a:3b:63:9e:22:13:fa:55:d1:bc:e8:
                    dd:31:71:df:0d:a6:0b:29:29:cc:da:bd:69:5c:cb:
                    29:7e:6c:8c:93:82:c7:8b:00:ea:0b:8c:35:5c:fe:
                    28:12:cf:ba:11:24:48:bc:0a:ee:37:54:a3:f2:9b:
                    f2:76:94:7d:56:c0:52:35:f0:ff:c8:8c:08:7e:b0:
                    49:c5:2f:fd:41:92:06:e8:c2:71:0d:f6:70:e5:93:
                    89:80:a2:13:43:ac:53:56:ba:1a:44:44:98:cd:ba:
                    f9:3a:93:20:71:34:93:0f:3f:34:34:2e:53:b2:d7:
                    4a:22:3e:89:0a:c3:6e:12:40:ba:f3:22:6d:38:63:
                    3b:f0:ef:42:2b:2d:f4:d2:f8:a9:76:ce:13:37:ce:
                    1a:a4:bd:42:a0:7b:71:df:0e:3f:93:10:9d:22:0a:
                    8b:61:92:c6:4c:fe:e7:bf:56:f4:5c:d3:85:98:92:
                    a2:dc:d1:3d:f8:6e:3e:ac:e1:87:2f:e1:fb:30:d5:
                    3d:24:fc:d9:d1:ac:b9:ca:9c:41:ff:60:aa:e4:57:
                    7e:b1:93:ac:4f:64:b5:0a:d3:57:4e:12:68:5b:18:
                    d2:15
                Exponent: 65537 (0x10001)
        X509v3 extensions:
            X509v3 Subject Key Identifier: 
                07:D8:71:DB:2B:1A:9D:AE:C2:07:30:2E:00:AC:58:63:9B:20:7D:A6
            X509v3 Authority Key Identifier: 
                keyid:07:D8:71:DB:2B:1A:9D:AE:C2:07:30:2E:00:AC:58:63:9B:20:7D:A6
                DirName:/C=CA/ST=BC/O=juliusdavies.ca/OU=not-yet-commons-ssl/CN=root/emailAddress=juliusdavies@gmail.com
                serial:20:09:05:25

            X509v3 Basic Constraints: 
                CA:TRUE
    Signature Algorithm: sha1WithRSAEncryption
        9a:29:28:5e:4f:4f:59:f8:6b:b0:96:bf:ef:69:02:36:d1:72:
        af:a2:f3:c0:7d:c1:50:5a:b8:63:61:18:1a:d4:4d:8f:a4:b2:
        18:5d:1b:75:1d:b6:ce:e6:aa:b3:c1:16:ab:dd:64:ac:be:62:
        7f:77:1d:d4:6a:eb:5d:f7:19:eb:6a:6a:60:6d:ca:d6:2a:4d:
        ee:c9:5b:1e:05:eb:bb:3f:5f:a4:76:ae:fd:32:ac:1e:63:e7:
        35:d3:95:1d:c9:bc:7a:2f:e7:0e:04:95:59:4d:30:51:ac:67:
        65:41:74:b3:62:f6:4d:85:4b:88:26:15:c2:2d:03:69:16:f7:
        6a:8a:5c:ca:ca:7b:ba:41:f9:7b:f4:ae:f8:29:56:48:9d:86:
        2e:0a:06:7a:21:97:01:b3:d4:45:5a:14:05:d3:b1:3a:da:0a:
        67:6d:d5:45:db:ba:88:09:4b:53:b3:69:1a:52:de:57:03:89:
        fa:99:82:1d:79:fb:ae:55:d7:13:fd:5e:99:25:cb:75:a1:62:
        b4:27:f0:54:4b:78:42:8b:54:63:62:f4:a3:0b:e2:26:a4:0c:
        29:ae:49:b4:1a:34:e6:a4:07:8a:64:cb:63:46:ae:fa:ec:d0:
        f4:e1:e2:25:11:57:27:61:e8:d1:48:ad:60:13:2d:b9:38:a3:
        52:03:0f:ad
-----BEGIN CERTIFICATE-----
MIIEfDCCA2SgAwIBAgIEIAkFJTANBgkqhkiG9w0BAQUFADCBiDELMAkGA1UEBhMC
Q0ExCzAJBgNVBAgTAkJDMRgwFgYDVQQKEw9qdWxpdXNkYXZpZXMuY2ExHDAaBgNV
BAsTE25vdC15ZXQtY29tbW9ucy1zc2wxDTALBgNVBAMTBHJvb3QxJTAjBgkqhkiG
9w0BCQEWFmp1bGl1c2Rhdmllc0BnbWFpbC5jb20wHhcNMDkwNTI1MjE0NDI4WhcN
NDkwNTI1MjE0NDI4WjCBiDELMAkGA1UEBhMCQ0ExCzAJBgNVBAgTAkJDMRgwFgYD
VQQKEw9qdWxpdXNkYXZpZXMuY2ExHDAaBgNVBAsTE25vdC15ZXQtY29tbW9ucy1z
c2wxDTALBgNVBAMTBHJvb3QxJTAjBgkqhkiG9w0BCQEWFmp1bGl1c2Rhdmllc0Bn
bWFpbC5jb20wggEiMA0GCSqGSIb3DQEBAQUAA4IBDwAwggEKAoIBAQC52wQWjEHr
kcS40RpzKFkJuHq1BUDbTytje78BcOENTAk6O2OeIhP6VdG86N0xcd8NpgspKcza
vWlcyyl+bIyTgseLAOoLjDVc/igSz7oRJEi8Cu43VKPym/J2lH1WwFI18P/IjAh+
sEnFL/1BkgbownEN9nDlk4mAohNDrFNWuhpERJjNuvk6kyBxNJMPPzQ0LlOy10oi
PokKw24SQLrzIm04Yzvw70IrLfTS+Kl2zhM3zhqkvUKge3HfDj+TEJ0iCothksZM
/ue/VvRc04WYkqLc0T34bj6s4Ycv4fsw1T0k/NnRrLnKnEH/YKrkV36xk6xPZLUK
01dOEmhbGNIVAgMBAAGjgeswgegwHQYDVR0OBBYEFAfYcdsrGp2uwgcwLgCsWGOb
IH2mMIG4BgNVHSMEgbAwga2AFAfYcdsrGp2uwgcwLgCsWGObIH2moYGOpIGLMIGI
MQswCQYDVQQGEwJDQTELMAkGA1UECBMCQkMxGDAWBgNVBAoTD2p1bGl1c2Rhdmll
cy5jYTEcMBoGA1UECxMTbm90LXlldC1jb21tb25zLXNzbDENMAsGA1UEAxMEcm9v
dDElMCMGCSqGSIb3DQEJARYWanVsaXVzZGF2aWVzQGdtYWlsLmNvbYIEIAkFJTAM
BgNVHRMEBTADAQH/MA0GCSqGSIb3DQEBBQUAA4IBAQCaKSheT09Z+Guwlr/vaQI2
0XKvovPAfcFQWrhjYRga1E2PpLIYXRt1HbbO5qqzwRar3WSsvmJ/dx3Uautd9xnr
ampgbcrWKk3uyVseBeu7P1+kdq79MqweY+c105Udybx6L+cOBJVZTTBRrGdlQXSz
YvZNhUuIJhXCLQNpFvdqilzKynu6Qfl79K74KVZInYYuCgZ6IZcBs9RFWhQF07E6
2gpnbdVF27qICUtTs2kaUt5XA4n6mYIdefuuVdcT/V6ZJct1oWK0J/BUS3hCi1Rj
YvSjC+ImpAwprkm0GjTmpAeKZMtjRq767ND04eIlEVcnYejRSK1gEy25OKNSAw+t
-----END CERTIFICATE-----
