Certificate:
    Data:
        Version: 3 (0x2)
        Serial Number: 537462053 (0x20090525)
        Signature Algorithm: sha1WithRSAEncryption
        Issuer: C=CA, ST=BC, O=juliusdavies.ca, OU=not-yet-commons-ssl, CN=rsa-intermediate/emailAddress=juliusdavies@gmail.com
        Validity
            Not Before: May 25 21:44:31 2009 GMT
            Not After : May 25 21:44:31 2049 GMT
        Subject: C=CA, ST=BC, O=juliusdavies.ca, OU=not-yet-commons-ssl, CN=test/emailAddress=juliusdavies@gmail.com
        Subject Public Key Info:
            Public Key Algorithm: rsaEncryption
            RSA Public Key: (2048 bit)
                Modulus (2048 bit):
                    00:c8:63:af:96:82:3e:8c:a9:d1:1d:62:ae:85:80:
                    7e:71:32:04:c1:98:5a:80:a2:74:7f:7a:c8:63:c5:
                    8d:82:e8:c1:ec:f9:69:82:98:d4:83:8a:4d:8d:81:
                    95:88:68:e0:ef:38:5f:6e:38:42:b6:53:46:5f:24:
                    41:b6:2d:c6:71:a1:e2:04:82:0f:e6:7c:82:36:7f:
                    80:cb:cb:52:58:6a:39:bf:96:5c:f0:14:1c:c0:77:
                    f4:64:72:cd:ea:c0:fd:9b:6b:95:4a:9f:fa:52:a8:
                    d2:e5:9c:a1:cc:5e:45:ce:fb:d4:a3:7c:70:f1:f7:
                    9c:76:74:ad:5d:07:c7:86:40:67:2e:94:e3:1c:4e:
                    6d:ee:2b:b5:25:58:d3:b8:4d:29:70:1b:da:87:67:
                    56:a8:33:71:88:83:90:b5:7c:8a:5b:c4:9a:83:56:
                    31:6a:e9:f1:40:6a:91:37:29:12:16:21:09:8a:77:
                    71:39:20:27:03:12:ba:ab:fc:06:a9:c6:77:ce:f1:
                    41:4d:c5:55:92:38:b5:bb:64:07:e2:b3:8c:3f:73:
                    cf:c4:02:0c:90:1f:0e:36:47:47:4d:ca:35:0e:66:
                    c4:e8:17:c3:1c:0a:c3:a9:46:31:a8:95:25:3c:69:
                    4c:aa:b2:9b:dd:f0:85:89:3d:de:5d:e8:70:47:b9:
                    e5:cd
                Exponent: 65537 (0x10001)
        X509v3 extensions:
            X509v3 Basic Constraints: 
                CA:FALSE
            Netscape Comment: 
                OpenSSL Generated Certificate
            X509v3 Subject Key Identifier: 
                9F:14:77:BF:3F:3A:B6:CA:38:82:42:48:16:2C:DA:D0:CB:5E:87:D8
            X509v3 Authority Key Identifier: 
                keyid:2E:F4:CD:A1:B4:AD:03:85:D8:AF:69:97:D5:2D:95:40:D6:BF:12:BF

    Signature Algorithm: sha1WithRSAEncryption
        02:ea:45:04:9c:7b:79:4b:bc:24:7d:b4:5a:43:fa:cc:06:48:
        d3:60:3f:a0:04:bc:42:ef:01:cc:0d:75:64:85:0a:86:37:e7:
        14:09:29:92:f0:e0:c1:d4:e5:c1:6b:82:82:74:74:74:ae:68:
        ac:0d:08:d3:95:e4:aa:3b:6a:a7:fd:f6:ea:f1:de:7b:4d:7b:
        70:f8:a4:b1:21:a3:b2:e6:b1:5a:85:ca:c5:47:4b:c3:35:23:
        3d:cd:f3:f8:fa:07:35:7d:df:a9:7e:a5:11:86:83:8f:06:13:
        b5:93:73:78:ab:35:90:0d:a1:7d:8a:11:e7:55:d8:15:bd:bd:
        54:e0:ae:6a:77:1a:13:ea:4c:23:11:64:d2:2f:2c:e1:04:2c:
        05:b4:c7:25:73:6d:3b:69:be:94:16:6d:28:00:bc:67:48:f8:
        1e:dd:1d:63:4c:6b:9f:85:e4:bb:10:ff:bf:b6:f2:2c:c8:53:
        3c:23:b6:55:85:fd:68:95:27:93:ff:34:d7:29:7b:18:19:4b:
        77:88:e8:75:a5:ba:2c:d6:64:f7:25:2e:fa:af:14:63:95:1b:
        d1:77:3c:bc:0c:13:5f:37:5a:06:b7:92:22:ed:a0:d1:6c:b1:
        e7:3f:af:95:c1:8a:7f:47:46:a0:74:ad:35:d0:52:59:31:b5:
        2b:3c:fe:3d
-----BEGIN CERTIFICATE-----
MIIEFzCCAv+gAwIBAgIEIAkFJTANBgkqhkiG9w0BAQUFADCBlDELMAkGA1UEBhMC
Q0ExCzAJBgNVBAgTAkJDMRgwFgYDVQQKEw9qdWxpdXNkYXZpZXMuY2ExHDAaBgNV
BAsTE25vdC15ZXQtY29tbW9ucy1zc2wxGTAXBgNVBAMTEHJzYS1pbnRlcm1lZGlh
dGUxJTAjBgkqhkiG9w0BCQEWFmp1bGl1c2Rhdmllc0BnbWFpbC5jb20wHhcNMDkw
NTI1MjE0NDMxWhcNNDkwNTI1MjE0NDMxWjCBiDELMAkGA1UEBhMCQ0ExCzAJBgNV
BAgTAkJDMRgwFgYDVQQKEw9qdWxpdXNkYXZpZXMuY2ExHDAaBgNVBAsTE25vdC15
ZXQtY29tbW9ucy1zc2wxDTALBgNVBAMTBHRlc3QxJTAjBgkqhkiG9w0BCQEWFmp1
bGl1c2Rhdmllc0BnbWFpbC5jb20wggEiMA0GCSqGSIb3DQEBAQUAA4IBDwAwggEK
AoIBAQDIY6+Wgj6MqdEdYq6FgH5xMgTBmFqAonR/eshjxY2C6MHs+WmCmNSDik2N
gZWIaODvOF9uOEK2U0ZfJEG2LcZxoeIEgg/mfII2f4DLy1JYajm/llzwFBzAd/Rk
cs3qwP2ba5VKn/pSqNLlnKHMXkXO+9SjfHDx95x2dK1dB8eGQGculOMcTm3uK7Ul
WNO4TSlwG9qHZ1aoM3GIg5C1fIpbxJqDVjFq6fFAapE3KRIWIQmKd3E5ICcDErqr
/AapxnfO8UFNxVWSOLW7ZAfis4w/c8/EAgyQHw42R0dNyjUOZsToF8McCsOpRjGo
lSU8aUyqspvd8IWJPd5d6HBHueXNAgMBAAGjezB5MAkGA1UdEwQCMAAwLAYJYIZI
AYb4QgENBB8WHU9wZW5TU0wgR2VuZXJhdGVkIENlcnRpZmljYXRlMB0GA1UdDgQW
BBSfFHe/Pzq2yjiCQkgWLNrQy16H2DAfBgNVHSMEGDAWgBQu9M2htK0DhdivaZfV
LZVA1r8SvzANBgkqhkiG9w0BAQUFAAOCAQEAAupFBJx7eUu8JH20WkP6zAZI02A/
oAS8Qu8BzA11ZIUKhjfnFAkpkvDgwdTlwWuCgnR0dK5orA0I05Xkqjtqp/326vHe
e017cPiksSGjsuaxWoXKxUdLwzUjPc3z+PoHNX3fqX6lEYaDjwYTtZNzeKs1kA2h
fYoR51XYFb29VOCuancaE+pMIxFk0i8s4QQsBbTHJXNtO2m+lBZtKAC8Z0j4Ht0d
Y0xrn4XkuxD/v7byLMhTPCO2VYX9aJUnk/801yl7GBlLd4jodaW6LNZk9yUu+q8U
Y5Ub0Xc8vAwTXzdaBreSIu2g0Wyx5z+vlcGKf0dGoHStNdBSWTG1Kzz+PQ==
-----END CERTIFICATE-----
