Certificate:
    Data:
        Version: 3 (0x2)
        Serial Number: 537462054 (0x20090526)
        Signature Algorithm: sha1WithRSAEncryption
        Issuer: C=CA, ST=BC, O=juliusdavies.ca, OU=not-yet-commons-ssl, CN=root/emailAddress=juliusdavies@gmail.com
        Validity
            Not Before: May 25 21:44:29 2009 GMT
            Not After : May 25 21:44:29 2049 GMT
        Subject: C=CA, ST=BC, O=juliusdavies.ca, OU=not-yet-commons-ssl, CN=rsa-intermediate/emailAddress=juliusdavies@gmail.com
        Subject Public Key Info:
            Public Key Algorithm: rsaEncryption
            RSA Public Key: (2048 bit)
                Modulus (2048 bit):
                    00:ce:1b:db:73:49:85:a4:3c:42:14:84:6a:7d:47:
                    78:d2:e1:58:27:ed:e4:78:5e:5d:2b:ee:c3:29:c5:
                    a2:d2:6f:f3:0e:0a:d6:d6:7f:5a:f7:30:6f:c9:8f:
                    ad:fe:53:22:46:aa:5e:0b:f6:e8:21:f3:dc:5f:75:
                    9b:55:c5:07:ab:75:54:fd:9b:2e:31:da:12:45:3c:
                    7b:1e:27:f6:a1:5b:5d:ac:0a:b4:e8:dd:d3:ba:ff:
                    af:f1:43:31:4c:5b:5e:73:d4:a8:ce:93:b9:f1:9d:
                    8b:17:1f:16:74:4f:9a:07:80:7c:1a:41:a6:49:21:
                    2a:a8:83:75:18:3d:ed:17:8b:8b:b4:f8:46:d3:28:
                    25:35:e1:17:df:e6:b4:f7:87:a7:71:0f:a0:b5:22:
                    4d:48:35:2c:a3:dc:fc:58:33:76:fb:07:cf:fb:64:
                    e9:fa:05:a8:be:63:eb:32:48:01:10:fd:44:a2:79:
                    72:5d:33:62:1b:ad:f4:60:3f:7d:59:9c:07:cf:9c:
                    b1:b5:e7:18:84:5e:ec:e0:78:6c:53:f0:cf:67:8d:
                    91:95:73:72:de:70:c7:ca:ea:27:6f:d2:61:c8:7d:
                    a5:28:28:61:c8:c9:e9:6b:7e:ae:07:9d:36:87:04:
                    a4:97:1c:1d:f5:39:cb:b2:8a:32:8d:25:68:05:2d:
                    86:65
                Exponent: 65537 (0x10001)
        X509v3 extensions:
            X509v3 Subject Key Identifier: 
                2E:F4:CD:A1:B4:AD:03:85:D8:AF:69:97:D5:2D:95:40:D6:BF:12:BF
            X509v3 Authority Key Identifier: 
                keyid:07:D8:71:DB:2B:1A:9D:AE:C2:07:30:2E:00:AC:58:63:9B:20:7D:A6
                DirName:/C=CA/ST=BC/O=juliusdavies.ca/OU=not-yet-commons-ssl/CN=root/emailAddress=juliusdavies@gmail.com
                serial:20:09:05:25

            X509v3 Basic Constraints: 
                CA:TRUE
    Signature Algorithm: sha1WithRSAEncryption
        03:b6:83:af:6c:ff:2b:21:12:b9:8a:cd:8e:2f:d9:1a:28:88:
        0c:9f:f1:6b:73:fb:76:3f:70:d8:cd:ce:5a:f6:0f:08:6a:0a:
        a3:f7:ad:b2:72:19:eb:0e:9c:36:bb:a4:fb:3f:90:78:ba:45:
        ee:da:c9:8e:a0:ef:b3:ac:05:4c:f4:b4:37:18:0d:bb:20:5d:
        f4:e7:b3:77:ea:56:0c:ad:81:42:80:04:92:ca:3b:73:ed:35:
        d5:35:f6:9f:95:a2:2d:81:4d:e6:3a:3c:13:64:f1:0f:36:7e:
        90:c2:a0:37:c6:19:9e:13:47:92:a3:e8:18:3d:f4:d8:a0:83:
        80:0f:7b:a7:57:9c:60:6c:6a:3e:d4:1d:cc:5e:8c:13:7f:1c:
        d7:f6:df:ad:ae:0a:95:12:f1:71:c2:70:98:d1:2f:6c:f0:24:
        43:b4:7e:a4:e4:31:d4:bc:50:90:03:4b:34:ba:a3:d0:fd:f5:
        01:17:eb:11:83:44:86:65:17:bf:89:00:c7:93:d6:70:7e:0b:
        4b:93:dc:f9:92:50:4c:3e:11:23:c5:50:1c:49:bd:8c:0c:2c:
        60:1c:d8:e6:5f:a4:fa:21:db:8c:62:bf:74:a3:83:1c:8d:cc:
        8e:34:8c:16:1c:c6:71:63:89:c2:c4:45:0c:90:71:98:68:2f:
        9d:a7:87:f7
-----BEGIN CERTIFICATE-----
MIIEiDCCA3CgAwIBAgIEIAkFJjANBgkqhkiG9w0BAQUFADCBiDELMAkGA1UEBhMC
Q0ExCzAJBgNVBAgTAkJDMRgwFgYDVQQKEw9qdWxpdXNkYXZpZXMuY2ExHDAaBgNV
BAsTE25vdC15ZXQtY29tbW9ucy1zc2wxDTALBgNVBAMTBHJvb3QxJTAjBgkqhkiG
9w0BCQEWFmp1bGl1c2Rhdmllc0BnbWFpbC5jb20wHhcNMDkwNTI1MjE0NDI5WhcN
NDkwNTI1MjE0NDI5WjCBlDELMAkGA1UEBhMCQ0ExCzAJBgNVBAgTAkJDMRgwFgYD
VQQKEw9qdWxpdXNkYXZpZXMuY2ExHDAaBgNVBAsTE25vdC15ZXQtY29tbW9ucy1z
c2wxGTAXBgNVBAMTEHJzYS1pbnRlcm1lZGlhdGUxJTAjBgkqhkiG9w0BCQEWFmp1
bGl1c2Rhdmllc0BnbWFpbC5jb20wggEiMA0GCSqGSIb3DQEBAQUAA4IBDwAwggEK
AoIBAQDOG9tzSYWkPEIUhGp9R3jS4Vgn7eR4Xl0r7sMpxaLSb/MOCtbWf1r3MG/J
j63+UyJGql4L9ugh89xfdZtVxQerdVT9my4x2hJFPHseJ/ahW12sCrTo3dO6/6/x
QzFMW15z1KjOk7nxnYsXHxZ0T5oHgHwaQaZJISqog3UYPe0Xi4u0+EbTKCU14Rff
5rT3h6dxD6C1Ik1INSyj3PxYM3b7B8/7ZOn6Bai+Y+sySAEQ/USieXJdM2IbrfRg
P31ZnAfPnLG15xiEXuzgeGxT8M9njZGVc3LecMfK6idv0mHIfaUoKGHIyelrfq4H
nTaHBKSXHB31OcuyijKNJWgFLYZlAgMBAAGjgeswgegwHQYDVR0OBBYEFC70zaG0
rQOF2K9pl9UtlUDWvxK/MIG4BgNVHSMEgbAwga2AFAfYcdsrGp2uwgcwLgCsWGOb
IH2moYGOpIGLMIGIMQswCQYDVQQGEwJDQTELMAkGA1UECBMCQkMxGDAWBgNVBAoT
D2p1bGl1c2Rhdmllcy5jYTEcMBoGA1UECxMTbm90LXlldC1jb21tb25zLXNzbDEN
MAsGA1UEAxMEcm9vdDElMCMGCSqGSIb3DQEJARYWanVsaXVzZGF2aWVzQGdtYWls
LmNvbYIEIAkFJTAMBgNVHRMEBTADAQH/MA0GCSqGSIb3DQEBBQUAA4IBAQADtoOv
bP8rIRK5is2OL9kaKIgMn/Frc/t2P3DYzc5a9g8Iagqj962ychnrDpw2u6T7P5B4
ukXu2smOoO+zrAVM9LQ3GA27IF3057N36lYMrYFCgASSyjtz7TXVNfaflaItgU3m
OjwTZPEPNn6QwqA3xhmeE0eSo+gYPfTYoIOAD3unV5xgbGo+1B3MXowTfxzX9t+t
rgqVEvFxwnCY0S9s8CRDtH6k5DHUvFCQA0s0uqPQ/fUBF+sRg0SGZRe/iQDHk9Zw
fgtLk9z5klBMPhEjxVAcSb2MDCxgHNjmX6T6IduMYr90o4McjcyONIwWHMZxY4nC
xEUMkHGYaC+dp4f3
-----END CERTIFICATE-----
