Certificate:
    Data:
        Version: 3 (0x2)
        Serial Number: 537462053 (0x20090525)
        Signature Algorithm: sha1WithRSAEncryption
        Issuer: C=CA, ST=BC, O=juliusdavies.ca, OU=not-yet-commons-ssl, CN=root/emailAddress=juliusdavies@gmail.com
        Validity
            Not Before: May 25 21:44:28 2009 GMT
            Not After : May 25 21:44:28 2049 GMT
        Subject: C=CA, ST=BC, O=juliusdavies.ca, OU=not-yet-commons-ssl, CN=root/emailAddress=juliusdavies@gmail.com
        Subject Public Key Info:
            Public Key Algorithm: rsaEncryption
            RSA Public Key: (2048 bit)
                Modulus (2048 bit):
                    00:b9:db:04:16:8c:41:eb:91:c4:b8:d1:1a:73:28:
                    59:09:b8:7a:b5:05:40:db:4f:2b:63:7b:bf:01:70:
                    e1:0d:4c:09:3a:3b:63:9e:22:13:fa:55:d1:bc:e8:
                    dd:31:71:df:0d:a6:0b:29:29:cc:da:bd:69:5c:cb:
                    29:7e:6c:8c:93:82:c7:8b:00:ea:0b:8c:35:5c:fe:
                    28:12:cf:ba:11:24:48:bc:0a:ee:37:54:a3:f2:9b:
                    f2:76:94:7d:56:c0:52:35:f0:ff:c8:8c:08:7e:b0:
                    49:c5:2f:fd:41:92:06:e8:c2:71:0d:f6:70:e5:93:
                    89:80:a2:13:43:ac:53:56:ba:1a:44:44:98:cd:ba:
                    f9:3a:93:20:71:34:93:0f:3f:34:34:2e:53:b2:d7:
                    4a:22:3e:89:0a:c3:6e:12:40:ba:f3:22:6d:38:63:
                    3b:f0:ef:42:2b:2d:f4:d2:f8:a9:76:ce:13:37:ce:
                    1a:a4:bd:42:a0:7b:71:df:0e:3f:93:10:9d:22:0a:
                    8b:61:92:c6:4c:fe:e7:bf:56:f4:5c:d3:85:98:92:
                    a2:dc:d1:3d:f8:6e:3e:ac:e1:87:2f:e1:fb:30:d5:
                    3d:24:fc:d9:d1:ac:b9:ca:9c:41:ff:60:aa:e4:57:
                    7e:b1:93:ac:4f:64:b5:0a:d3:57:4e:12:68:5b:18:
                    d2:15
                Exponent: 65537 (0x10001)
        X509v3 extensions:
            X509v3 Subject Key Identifier: 
                07:D8:71:DB:2B:1A:9D:AE:C2:07:30:2E:00:AC:58:63:9B:20:7D:A6
            X509v3 Authority Key Identifier: 
                keyid:07:D8:71:DB:2B:1A:9D:AE:C2:07:30:2E:00:AC:58:63:9B:20:7D:A6
                DirName:/C=CA/ST=BC/O=juliusdavies.ca/OU=not-yet-commons-ssl/CN=root/emailAddress=juliusdavies@gmail.com
                serial:20:09:05:25

            X509v3 Basic Constraints: 
                CA:TRUE
    Signature Algorithm: sha1WithRSAEncryption
        9a:29:28:5e:4f:4f:59:f8:6b:b0:96:bf:ef:69:02:36:d1:72:
        af:a2:f3:c0:7d:c1:50:5a:b8:63:61:18:1a:d4:4d:8f:a4:b2:
        18:5d:1b:75:1d:b6:ce:e6:aa:b3:c1:16:ab:dd:64:ac:be:62:
        7f:77:1d:d4:6a:eb:5d:f7:19:eb:6a:6a:60:6d:ca:d6:2a:4d:
        ee:c9:5b:1e:05:eb:bb:3f:5f:a4:76:ae:fd:32:ac:1e:63:e7:
        35:d3:95:1d:c9:bc:7a:2f:e7:0e:04:95:59:4d:30:51:ac:67:
        65:41:74:b3:62:f6:4d:85:4b:88:26:15:c2:2d:03:69:16:f7:
        6a:8a:5c:ca:ca:7b:ba:41:f9:7b:f4:ae:f8:29:56:48:9d:86:
        2e:0a:06:7a:21:97:01:b3:d4:45:5a:14:05:d3:b1:3a:da:0a:
        67:6d:d5:45:db:ba:88:09:4b:53:b3:69:1a:52:de:57:03:89:
        fa:99:82:1d:79:fb:ae:55:d7:13:fd:5e:99:25:cb:75:a1:62:
        b4:27:f0:54:4b:78:42:8b:54:63:62:f4:a3:0b:e2:26:a4:0c:
        29:ae:49:b4:1a:34:e6:a4:07:8a:64:cb:63:46:ae:fa:ec:d0:
        f4:e1:e2:25:11:57:27:61:e8:d1:48:ad:60:13:2d:b9:38:a3:
        52:03:0f:ad
-----BEGIN CERTIFICATE-----
MIIEfDCCA2SgAwIBAgIEIAkFJTANBgkqhkiG9w0BAQUFADCBiDELMAkGA1UEBhMC
Q0ExCzAJBgNVBAgTAkJDMRgwFgYDVQQKEw9qdWxpdXNkYXZpZXMuY2ExHDAaBgNV
BAsTE25vdC15ZXQtY29tbW9ucy1zc2wxDTALBgNVBAMTBHJvb3QxJTAjBgkqhkiG
9w0BCQEWFmp1bGl1c2Rhdmllc0BnbWFpbC5jb20wHhcNMDkwNTI1MjE0NDI4WhcN
NDkwNTI1MjE0NDI4WjCBiDELMAkGA1UEBhMCQ0ExCzAJBgNVBAgTAkJDMRgwFgYD
VQQKEw9qdWxpdXNkYXZpZXMuY2ExHDAaBgNVBAsTE25vdC15ZXQtY29tbW9ucy1z
c2wxDTALBgNVBAMTBHJvb3QxJTAjBgkqhkiG9w0BCQEWFmp1bGl1c2Rhdmllc0Bn
bWFpbC5jb20wggEiMA0GCSqGSIb3DQEBAQUAA4IBDwAwggEKAoIBAQC52wQWjEHr
kcS40RpzKFkJuHq1BUDbTytje78BcOENTAk6O2OeIhP6VdG86N0xcd8NpgspKcza
vWlcyyl+bIyTgseLAOoLjDVc/igSz7oRJEi8Cu43VKPym/J2lH1WwFI18P/IjAh+
sEnFL/1BkgbownEN9nDlk4mAohNDrFNWuhpERJjNuvk6kyBxNJMPPzQ0LlOy10oi
PokKw24SQLrzIm04Yzvw70IrLfTS+Kl2zhM3zhqkvUKge3HfDj+TEJ0iCothksZM
/ue/VvRc04WYkqLc0T34bj6s4Ycv4fsw1T0k/NnRrLnKnEH/YKrkV36xk6xPZLUK
01dOEmhbGNIVAgMBAAGjgeswgegwHQYDVR0OBBYEFAfYcdsrGp2uwgcwLgCsWGOb
IH2mMIG4BgNVHSMEgbAwga2AFAfYcdsrGp2uwgcwLgCsWGObIH2moYGOpIGLMIGI
MQswCQYDVQQGEwJDQTELMAkGA1UECBMCQkMxGDAWBgNVBAoTD2p1bGl1c2Rhdmll
cy5jYTEcMBoGA1UECxMTbm90LXlldC1jb21tb25zLXNzbDENMAsGA1UEAxMEcm9v
dDElMCMGCSqGSIb3DQEJARYWanVsaXVzZGF2aWVzQGdtYWlsLmNvbYIEIAkFJTAM
BgNVHRMEBTADAQH/MA0GCSqGSIb3DQEBBQUAA4IBAQCaKSheT09Z+Guwlr/vaQI2
0XKvovPAfcFQWrhjYRga1E2PpLIYXRt1HbbO5qqzwRar3WSsvmJ/dx3Uautd9xnr
ampgbcrWKk3uyVseBeu7P1+kdq79MqweY+c105Udybx6L+cOBJVZTTBRrGdlQXSz
YvZNhUuIJhXCLQNpFvdqilzKynu6Qfl79K74KVZInYYuCgZ6IZcBs9RFWhQF07E6
2gpnbdVF27qICUtTs2kaUt5XA4n6mYIdefuuVdcT/V6ZJct1oWK0J/BUS3hCi1Rj
YvSjC+ImpAwprkm0GjTmpAeKZMtjRq767ND04eIlEVcnYejRSK1gEy25OKNSAw+t
-----END CERTIFICATE-----
