Certificate:
    Data:
        Version: 3 (0x2)
        Serial Number: 537462053 (0x20090525)
        Signature Algorithm: sha1WithRSAEncryption
        Issuer: C=CA, ST=BC, O=juliusdavies.ca, OU=not-yet-commons-ssl, CN=rsa-intermediate/emailAddress=juliusdavies@gmail.com
        Validity
            Not Before: May 25 21:44:31 2009 GMT
            Not After : May 25 21:44:31 2049 GMT
        Subject: C=CA, ST=BC, O=juliusdavies.ca, OU=not-yet-commons-ssl, CN=test/emailAddress=juliusdavies@gmail.com
        Subject Public Key Info:
            Public Key Algorithm: rsaEncryption
            RSA Public Key: (2048 bit)
                Modulus (2048 bit):
                    00:c8:63:af:96:82:3e:8c:a9:d1:1d:62:ae:85:80:
                    7e:71:32:04:c1:98:5a:80:a2:74:7f:7a:c8:63:c5:
                    8d:82:e8:c1:ec:f9:69:82:98:d4:83:8a:4d:8d:81:
                    95:88:68:e0:ef:38:5f:6e:38:42:b6:53:46:5f:24:
                    41:b6:2d:c6:71:a1:e2:04:82:0f:e6:7c:82:36:7f:
                    80:cb:cb:52:58:6a:39:bf:96:5c:f0:14:1c:c0:77:
                    f4:64:72:cd:ea:c0:fd:9b:6b:95:4a:9f:fa:52:a8:
                    d2:e5:9c:a1:cc:5e:45:ce:fb:d4:a3:7c:70:f1:f7:
                    9c:76:74:ad:5d:07:c7:86:40:67:2e:94:e3:1c:4e:
                    6d:ee:2b:b5:25:58:d3:b8:4d:29:70:1b:da:87:67:
                    56:a8:33:71:88:83:90:b5:7c:8a:5b:c4:9a:83:56:
                    31:6a:e9:f1:40:6a:91:37:29:12:16:21:09:8a:77:
                    71:39:20:27:03:12:ba:ab:fc:06:a9:c6:77:ce:f1:
                    41:4d:c5:55:92:38:b5:bb:64:07:e2:b3:8c:3f:73:
                    cf:c4:02:0c:90:1f:0e:36:47:47:4d:ca:35:0e:66:
                    c4:e8:17:c3:1c:0a:c3:a9:46:31:a8:95:25:3c:69:
                    4c:aa:b2:9b:dd:f0:85:89:3d:de:5d:e8:70:47:b9:
                    e5:cd
                Exponent: 65537 (0x10001)
        X509v3 extensions:
            X509v3 Basic Constraints: 
                CA:FALSE
            Netscape Comment: 
                OpenSSL Generated Certificate
            X509v3 Subject Key Identifier: 
                9F:14:77:BF:3F:3A:B6:CA:38:82:42:48:16:2C:DA:D0:CB:5E:87:D8
            X509v3 Authority Key Identifier: 
                keyid:2E:F4:CD:A1:B4:AD:03:85:D8:AF:69:97:D5:2D:95:40:D6:BF:12:BF

    Signature Algorithm: sha1WithRSAEncryption
        02:ea:45:04:9c:7b:79:4b:bc:24:7d:b4:5a:43:fa:cc:06:48:
        d3:60:3f:a0:04:bc:42:ef:01:cc:0d:75:64:85:0a:86:37:e7:
        14:09:29:92:f0:e0:c1:d4:e5:c1:6b:82:82:74:74:74:ae:68:
        ac:0d:08:d3:95:e4:aa:3b:6a:a7:fd:f6:ea:f1:de:7b:4d:7b:
        70:f8:a4:b1:21:a3:b2:e6:b1:5a:85:ca:c5:47:4b:c3:35:23:
        3d:cd:f3:f8:fa:07:35:7d:df:a9:7e:a5:11:86:83:8f:06:13:
        b5:93:73:78:ab:35:90:0d:a1:7d:8a:11:e7:55:d8:15:bd:bd:
        54:e0:ae:6a:77:1a:13:ea:4c:23:11:64:d2:2f:2c:e1:04:2c:
        05:b4:c7:25:73:6d:3b:69:be:94:16:6d:28:00:bc:67:48:f8:
        1e:dd:1d:63:4c:6b:9f:85:e4:bb:10:ff:bf:b6:f2:2c:c8:53:
        3c:23:b6:55:85:fd:68:95:27:93:ff:34:d7:29:7b:18:19:4b:
        77:88:e8:75:a5:ba:2c:d6:64:f7:25:2e:fa:af:14:63:95:1b:
        d1:77:3c:bc:0c:13:5f:37:5a:06:b7:92:22:ed:a0:d1:6c:b1:
        e7:3f:af:95:c1:8a:7f:47:46:a0:74:ad:35:d0:52:59:31:b5:
        2b:3c:fe:3d
-----BEGIN CERTIFICATE-----
MIIEFzCCAv+gAwIBAgIEIAkFJTANBgkqhkiG9w0BAQUFADCBlDELMAkGA1UEBhMC
Q0ExCzAJBgNVBAgTAkJDMRgwFgYDVQQKEw9qdWxpdXNkYXZpZXMuY2ExHDAaBgNV
BAsTE25vdC15ZXQtY29tbW9ucy1zc2wxGTAXBgNVBAMTEHJzYS1pbnRlcm1lZGlh
dGUxJTAjBgkqhkiG9w0BCQEWFmp1bGl1c2Rhdmllc0BnbWFpbC5jb20wHhcNMDkw
NTI1MjE0NDMxWhcNNDkwNTI1MjE0NDMxWjCBiDELMAkGA1UEBhMCQ0ExCzAJBgNV
BAgTAkJDMRgwFgYDVQQKEw9qdWxpdXNkYXZpZXMuY2ExHDAaBgNVBAsTE25vdC15
ZXQtY29tbW9ucy1zc2wxDTALBgNVBAMTBHRlc3QxJTAjBgkqhkiG9w0BCQEWFmp1
bGl1c2Rhdmllc0BnbWFpbC5jb20wggEiMA0GCSqGSIb3DQEBAQUAA4IBDwAwggEK
AoIBAQDIY6+Wgj6MqdEdYq6FgH5xMgTBmFqAonR/eshjxY2C6MHs+WmCmNSDik2N
gZWIaODvOF9uOEK2U0ZfJEG2LcZxoeIEgg/mfII2f4DLy1JYajm/llzwFBzAd/Rk
cs3qwP2ba5VKn/pSqNLlnKHMXkXO+9SjfHDx95x2dK1dB8eGQGculOMcTm3uK7Ul
WNO4TSlwG9qHZ1aoM3GIg5C1fIpbxJqDVjFq6fFAapE3KRIWIQmKd3E5ICcDErqr
/AapxnfO8UFNxVWSOLW7ZAfis4w/c8/EAgyQHw42R0dNyjUOZsToF8McCsOpRjGo
lSU8aUyqspvd8IWJPd5d6HBHueXNAgMBAAGjezB5MAkGA1UdEwQCMAAwLAYJYIZI
AYb4QgENBB8WHU9wZW5TU0wgR2VuZXJhdGVkIENlcnRpZmljYXRlMB0GA1UdDgQW
BBSfFHe/Pzq2yjiCQkgWLNrQy16H2DAfBgNVHSMEGDAWgBQu9M2htK0DhdivaZfV
LZVA1r8SvzANBgkqhkiG9w0BAQUFAAOCAQEAAupFBJx7eUu8JH20WkP6zAZI02A/
oAS8Qu8BzA11ZIUKhjfnFAkpkvDgwdTlwWuCgnR0dK5orA0I05Xkqjtqp/326vHe
e017cPiksSGjsuaxWoXKxUdLwzUjPc3z+PoHNX3fqX6lEYaDjwYTtZNzeKs1kA2h
fYoR51XYFb29VOCuancaE+pMIxFk0i8s4QQsBbTHJXNtO2m+lBZtKAC8Z0j4Ht0d
Y0xrn4XkuxD/v7byLMhTPCO2VYX9aJUnk/801yl7GBlLd4jodaW6LNZk9yUu+q8U
Y5Ub0Xc8vAwTXzdaBreSIu2g0Wyx5z+vlcGKf0dGoHStNdBSWTG1Kzz+PQ==
-----END CERTIFICATE-----
Certificate:
    Data:
        Version: 3 (0x2)
        Serial Number: 537462054 (0x20090526)
        Signature Algorithm: sha1WithRSAEncryption
        Issuer: C=CA, ST=BC, O=juliusdavies.ca, OU=not-yet-commons-ssl, CN=root/emailAddress=juliusdavies@gmail.com
        Validity
            Not Before: May 25 21:44:29 2009 GMT
            Not After : May 25 21:44:29 2049 GMT
        Subject: C=CA, ST=BC, O=juliusdavies.ca, OU=not-yet-commons-ssl, CN=rsa-intermediate/emailAddress=juliusdavies@gmail.com
        Subject Public Key Info:
            Public Key Algorithm: rsaEncryption
            RSA Public Key: (2048 bit)
                Modulus (2048 bit):
                    00:ce:1b:db:73:49:85:a4:3c:42:14:84:6a:7d:47:
                    78:d2:e1:58:27:ed:e4:78:5e:5d:2b:ee:c3:29:c5:
                    a2:d2:6f:f3:0e:0a:d6:d6:7f:5a:f7:30:6f:c9:8f:
                    ad:fe:53:22:46:aa:5e:0b:f6:e8:21:f3:dc:5f:75:
                    9b:55:c5:07:ab:75:54:fd:9b:2e:31:da:12:45:3c:
                    7b:1e:27:f6:a1:5b:5d:ac:0a:b4:e8:dd:d3:ba:ff:
                    af:f1:43:31:4c:5b:5e:73:d4:a8:ce:93:b9:f1:9d:
                    8b:17:1f:16:74:4f:9a:07:80:7c:1a:41:a6:49:21:
                    2a:a8:83:75:18:3d:ed:17:8b:8b:b4:f8:46:d3:28:
                    25:35:e1:17:df:e6:b4:f7:87:a7:71:0f:a0:b5:22:
                    4d:48:35:2c:a3:dc:fc:58:33:76:fb:07:cf:fb:64:
                    e9:fa:05:a8:be:63:eb:32:48:01:10:fd:44:a2:79:
                    72:5d:33:62:1b:ad:f4:60:3f:7d:59:9c:07:cf:9c:
                    b1:b5:e7:18:84:5e:ec:e0:78:6c:53:f0:cf:67:8d:
                    91:95:73:72:de:70:c7:ca:ea:27:6f:d2:61:c8:7d:
                    a5:28:28:61:c8:c9:e9:6b:7e:ae:07:9d:36:87:04:
                    a4:97:1c:1d:f5:39:cb:b2:8a:32:8d:25:68:05:2d:
                    86:65
                Exponent: 65537 (0x10001)
        X509v3 extensions:
            X509v3 Subject Key Identifier: 
                2E:F4:CD:A1:B4:AD:03:85:D8:AF:69:97:D5:2D:95:40:D6:BF:12:BF
            X509v3 Authority Key Identifier: 
                keyid:07:D8:71:DB:2B:1A:9D:AE:C2:07:30:2E:00:AC:58:63:9B:20:7D:A6
                DirName:/C=CA/ST=BC/O=juliusdavies.ca/OU=not-yet-commons-ssl/CN=root/emailAddress=juliusdavies@gmail.com
                serial:20:09:05:25

            X509v3 Basic Constraints: 
                CA:TRUE
    Signature Algorithm: sha1WithRSAEncryption
        03:b6:83:af:6c:ff:2b:21:12:b9:8a:cd:8e:2f:d9:1a:28:88:
        0c:9f:f1:6b:73:fb:76:3f:70:d8:cd:ce:5a:f6:0f:08:6a:0a:
        a3:f7:ad:b2:72:19:eb:0e:9c:36:bb:a4:fb:3f:90:78:ba:45:
        ee:da:c9:8e:a0:ef:b3:ac:05:4c:f4:b4:37:18:0d:bb:20:5d:
        f4:e7:b3:77:ea:56:0c:ad:81:42:80:04:92:ca:3b:73:ed:35:
        d5:35:f6:9f:95:a2:2d:81:4d:e6:3a:3c:13:64:f1:0f:36:7e:
        90:c2:a0:37:c6:19:9e:13:47:92:a3:e8:18:3d:f4:d8:a0:83:
        80:0f:7b:a7:57:9c:60:6c:6a:3e:d4:1d:cc:5e:8c:13:7f:1c:
        d7:f6:df:ad:ae:0a:95:12:f1:71:c2:70:98:d1:2f:6c:f0:24:
        43:b4:7e:a4:e4:31:d4:bc:50:90:03:4b:34:ba:a3:d0:fd:f5:
        01:17:eb:11:83:44:86:65:17:bf:89:00:c7:93:d6:70:7e:0b:
        4b:93:dc:f9:92:50:4c:3e:11:23:c5:50:1c:49:bd:8c:0c:2c:
        60:1c:d8:e6:5f:a4:fa:21:db:8c:62:bf:74:a3:83:1c:8d:cc:
        8e:34:8c:16:1c:c6:71:63:89:c2:c4:45:0c:90:71:98:68:2f:
        9d:a7:87:f7
-----BEGIN CERTIFICATE-----
MIIEiDCCA3CgAwIBAgIEIAkFJjANBgkqhkiG9w0BAQUFADCBiDELMAkGA1UEBhMC
Q0ExCzAJBgNVBAgTAkJDMRgwFgYDVQQKEw9qdWxpdXNkYXZpZXMuY2ExHDAaBgNV
BAsTE25vdC15ZXQtY29tbW9ucy1zc2wxDTALBgNVBAMTBHJvb3QxJTAjBgkqhkiG
9w0BCQEWFmp1bGl1c2Rhdmllc0BnbWFpbC5jb20wHhcNMDkwNTI1MjE0NDI5WhcN
NDkwNTI1MjE0NDI5WjCBlDELMAkGA1UEBhMCQ0ExCzAJBgNVBAgTAkJDMRgwFgYD
VQQKEw9qdWxpdXNkYXZpZXMuY2ExHDAaBgNVBAsTE25vdC15ZXQtY29tbW9ucy1z
c2wxGTAXBgNVBAMTEHJzYS1pbnRlcm1lZGlhdGUxJTAjBgkqhkiG9w0BCQEWFmp1
bGl1c2Rhdmllc0BnbWFpbC5jb20wggEiMA0GCSqGSIb3DQEBAQUAA4IBDwAwggEK
AoIBAQDOG9tzSYWkPEIUhGp9R3jS4Vgn7eR4Xl0r7sMpxaLSb/MOCtbWf1r3MG/J
j63+UyJGql4L9ugh89xfdZtVxQerdVT9my4x2hJFPHseJ/ahW12sCrTo3dO6/6/x
QzFMW15z1KjOk7nxnYsXHxZ0T5oHgHwaQaZJISqog3UYPe0Xi4u0+EbTKCU14Rff
5rT3h6dxD6C1Ik1INSyj3PxYM3b7B8/7ZOn6Bai+Y+sySAEQ/USieXJdM2IbrfRg
P31ZnAfPnLG15xiEXuzgeGxT8M9njZGVc3LecMfK6idv0mHIfaUoKGHIyelrfq4H
nTaHBKSXHB31OcuyijKNJWgFLYZlAgMBAAGjgeswgegwHQYDVR0OBBYEFC70zaG0
rQOF2K9pl9UtlUDWvxK/MIG4BgNVHSMEgbAwga2AFAfYcdsrGp2uwgcwLgCsWGOb
IH2moYGOpIGLMIGIMQswCQYDVQQGEwJDQTELMAkGA1UECBMCQkMxGDAWBgNVBAoT
D2p1bGl1c2Rhdmllcy5jYTEcMBoGA1UECxMTbm90LXlldC1jb21tb25zLXNzbDEN
MAsGA1UEAxMEcm9vdDElMCMGCSqGSIb3DQEJARYWanVsaXVzZGF2aWVzQGdtYWls
LmNvbYIEIAkFJTAMBgNVHRMEBTADAQH/MA0GCSqGSIb3DQEBBQUAA4IBAQADtoOv
bP8rIRK5is2OL9kaKIgMn/Frc/t2P3DYzc5a9g8Iagqj962ychnrDpw2u6T7P5B4
ukXu2smOoO+zrAVM9LQ3GA27IF3057N36lYMrYFCgASSyjtz7TXVNfaflaItgU3m
OjwTZPEPNn6QwqA3xhmeE0eSo+gYPfTYoIOAD3unV5xgbGo+1B3MXowTfxzX9t+t
rgqVEvFxwnCY0S9s8CRDtH6k5DHUvFCQA0s0uqPQ/fUBF+sRg0SGZRe/iQDHk9Zw
fgtLk9z5klBMPhEjxVAcSb2MDCxgHNjmX6T6IduMYr90o4McjcyONIwWHMZxY4nC
xEUMkHGYaC+dp4f3
-----END CERTIFICATE-----
Certificate:
    Data:
        Version: 3 (0x2)
        Serial Number: 537462053 (0x20090525)
        Signature Algorithm: sha1WithRSAEncryption
        Issuer: C=CA, ST=BC, O=juliusdavies.ca, OU=not-yet-commons-ssl, CN=root/emailAddress=juliusdavies@gmail.com
        Validity
            Not Before: May 25 21:44:28 2009 GMT
            Not After : May 25 21:44:28 2049 GMT
        Subject: C=CA, ST=BC, O=juliusdavies.ca, OU=not-yet-commons-ssl, CN=root/emailAddress=juliusdavies@gmail.com
        Subject Public Key Info:
            Public Key Algorithm: rsaEncryption
            RSA Public Key: (2048 bit)
                Modulus (2048 bit):
                    00:b9:db:04:16:8c:41:eb:91:c4:b8:d1:1a:73:28:
                    59:09:b8:7a:b5:05:40:db:4f:2b:63:7b:bf:01:70:
                    e1:0d:4c:09:3a:3b:63:9e:22:13:fa:55:d1:bc:e8:
                    dd:31:71:df:0d:a6:0b:29:29:cc:da:bd:69:5c:cb:
                    29:7e:6c:8c:93:82:c7:8b:00:ea:0b:8c:35:5c:fe:
                    28:12:cf:ba:11:24:48:bc:0a:ee:37:54:a3:f2:9b:
                    f2:76:94:7d:56:c0:52:35:f0:ff:c8:8c:08:7e:b0:
                    49:c5:2f:fd:41:92:06:e8:c2:71:0d:f6:70:e5:93:
                    89:80:a2:13:43:ac:53:56:ba:1a:44:44:98:cd:ba:
                    f9:3a:93:20:71:34:93:0f:3f:34:34:2e:53:b2:d7:
                    4a:22:3e:89:0a:c3:6e:12:40:ba:f3:22:6d:38:63:
                    3b:f0:ef:42:2b:2d:f4:d2:f8:a9:76:ce:13:37:ce:
                    1a:a4:bd:42:a0:7b:71:df:0e:3f:93:10:9d:22:0a:
                    8b:61:92:c6:4c:fe:e7:bf:56:f4:5c:d3:85:98:92:
                    a2:dc:d1:3d:f8:6e:3e:ac:e1:87:2f:e1:fb:30:d5:
                    3d:24:fc:d9:d1:ac:b9:ca:9c:41:ff:60:aa:e4:57:
                    7e:b1:93:ac:4f:64:b5:0a:d3:57:4e:12:68:5b:18:
                    d2:15
                Exponent: 65537 (0x10001)
        X509v3 extensions:
            X509v3 Subject Key Identifier: 
                07:D8:71:DB:2B:1A:9D:AE:C2:07:30:2E:00:AC:58:63:9B:20:7D:A6
            X509v3 Authority Key Identifier: 
                keyid:07:D8:71:DB:2B:1A:9D:AE:C2:07:30:2E:00:AC:58:63:9B:20:7D:A6
                DirName:/C=CA/ST=BC/O=juliusdavies.ca/OU=not-yet-commons-ssl/CN=root/emailAddress=juliusdavies@gmail.com
                serial:20:09:05:25

            X509v3 Basic Constraints: 
                CA:TRUE
    Signature Algorithm: sha1WithRSAEncryption
        9a:29:28:5e:4f:4f:59:f8:6b:b0:96:bf:ef:69:02:36:d1:72:
        af:a2:f3:c0:7d:c1:50:5a:b8:63:61:18:1a:d4:4d:8f:a4:b2:
        18:5d:1b:75:1d:b6:ce:e6:aa:b3:c1:16:ab:dd:64:ac:be:62:
        7f:77:1d:d4:6a:eb:5d:f7:19:eb:6a:6a:60:6d:ca:d6:2a:4d:
        ee:c9:5b:1e:05:eb:bb:3f:5f:a4:76:ae:fd:32:ac:1e:63:e7:
        35:d3:95:1d:c9:bc:7a:2f:e7:0e:04:95:59:4d:30:51:ac:67:
        65:41:74:b3:62:f6:4d:85:4b:88:26:15:c2:2d:03:69:16:f7:
        6a:8a:5c:ca:ca:7b:ba:41:f9:7b:f4:ae:f8:29:56:48:9d:86:
        2e:0a:06:7a:21:97:01:b3:d4:45:5a:14:05:d3:b1:3a:da:0a:
        67:6d:d5:45:db:ba:88:09:4b:53:b3:69:1a:52:de:57:03:89:
        fa:99:82:1d:79:fb:ae:55:d7:13:fd:5e:99:25:cb:75:a1:62:
        b4:27:f0:54:4b:78:42:8b:54:63:62:f4:a3:0b:e2:26:a4:0c:
        29:ae:49:b4:1a:34:e6:a4:07:8a:64:cb:63:46:ae:fa:ec:d0:
        f4:e1:e2:25:11:57:27:61:e8:d1:48:ad:60:13:2d:b9:38:a3:
        52:03:0f:ad
-----BEGIN CERTIFICATE-----
MIIEfDCCA2SgAwIBAgIEIAkFJTANBgkqhkiG9w0BAQUFADCBiDELMAkGA1UEBhMC
Q0ExCzAJBgNVBAgTAkJDMRgwFgYDVQQKEw9qdWxpdXNkYXZpZXMuY2ExHDAaBgNV
BAsTE25vdC15ZXQtY29tbW9ucy1zc2wxDTALBgNVBAMTBHJvb3QxJTAjBgkqhkiG
9w0BCQEWFmp1bGl1c2Rhdmllc0BnbWFpbC5jb20wHhcNMDkwNTI1MjE0NDI4WhcN
NDkwNTI1MjE0NDI4WjCBiDELMAkGA1UEBhMCQ0ExCzAJBgNVBAgTAkJDMRgwFgYD
VQQKEw9qdWxpdXNkYXZpZXMuY2ExHDAaBgNVBAsTE25vdC15ZXQtY29tbW9ucy1z
c2wxDTALBgNVBAMTBHJvb3QxJTAjBgkqhkiG9w0BCQEWFmp1bGl1c2Rhdmllc0Bn
bWFpbC5jb20wggEiMA0GCSqGSIb3DQEBAQUAA4IBDwAwggEKAoIBAQC52wQWjEHr
kcS40RpzKFkJuHq1BUDbTytje78BcOENTAk6O2OeIhP6VdG86N0xcd8NpgspKcza
vWlcyyl+bIyTgseLAOoLjDVc/igSz7oRJEi8Cu43VKPym/J2lH1WwFI18P/IjAh+
sEnFL/1BkgbownEN9nDlk4mAohNDrFNWuhpERJjNuvk6kyBxNJMPPzQ0LlOy10oi
PokKw24SQLrzIm04Yzvw70IrLfTS+Kl2zhM3zhqkvUKge3HfDj+TEJ0iCothksZM
/ue/VvRc04WYkqLc0T34bj6s4Ycv4fsw1T0k/NnRrLnKnEH/YKrkV36xk6xPZLUK
01dOEmhbGNIVAgMBAAGjgeswgegwHQYDVR0OBBYEFAfYcdsrGp2uwgcwLgCsWGOb
IH2mMIG4BgNVHSMEgbAwga2AFAfYcdsrGp2uwgcwLgCsWGObIH2moYGOpIGLMIGI
MQswCQYDVQQGEwJDQTELMAkGA1UECBMCQkMxGDAWBgNVBAoTD2p1bGl1c2Rhdmll
cy5jYTEcMBoGA1UECxMTbm90LXlldC1jb21tb25zLXNzbDENMAsGA1UEAxMEcm9v
dDElMCMGCSqGSIb3DQEJARYWanVsaXVzZGF2aWVzQGdtYWlsLmNvbYIEIAkFJTAM
BgNVHRMEBTADAQH/MA0GCSqGSIb3DQEBBQUAA4IBAQCaKSheT09Z+Guwlr/vaQI2
0XKvovPAfcFQWrhjYRga1E2PpLIYXRt1HbbO5qqzwRar3WSsvmJ/dx3Uautd9xnr
ampgbcrWKk3uyVseBeu7P1+kdq79MqweY+c105Udybx6L+cOBJVZTTBRrGdlQXSz
YvZNhUuIJhXCLQNpFvdqilzKynu6Qfl79K74KVZInYYuCgZ6IZcBs9RFWhQF07E6
2gpnbdVF27qICUtTs2kaUt5XA4n6mYIdefuuVdcT/V6ZJct1oWK0J/BUS3hCi1Rj
YvSjC+ImpAwprkm0GjTmpAeKZMtjRq767ND04eIlEVcnYejRSK1gEy25OKNSAw+t
-----END CERTIFICATE-----
