Certificate:
    Data:
        Version: 3 (0x2)
        Serial Number:
            8c:fe:11:83:01:53:a6:93
        Signature Algorithm: sha1WithRSAEncryption
        Issuer: C=CA, ST=BC, L=Vancouver, O=www.cucbc.com, OU=commons_ssl, CN=demo_intermediate_ca/emailAddress=juliusdavies@gmail.com
        Validity
            Not Before: Dec 11 15:42:15 2006 GMT
            Not After : Nov  5 15:42:15 2028 GMT
        Subject: C=US, ST=Maryland, L=Forest Hill, O=httpcomponents, OU=test certificates, CN=\xE8\x8A\xB1\xE5\xAD\x90.co.jp/emailAddress=juliusdavies@gmail.com
        Subject Public Key Info:
            Public Key Algorithm: rsaEncryption
            RSA Public Key: (2048 bit)
                Modulus (2048 bit):
                    00:c8:63:af:96:82:3e:8c:a9:d1:1d:62:ae:85:80:
                    7e:71:32:04:c1:98:5a:80:a2:74:7f:7a:c8:63:c5:
                    8d:82:e8:c1:ec:f9:69:82:98:d4:83:8a:4d:8d:81:
                    95:88:68:e0:ef:38:5f:6e:38:42:b6:53:46:5f:24:
                    41:b6:2d:c6:71:a1:e2:04:82:0f:e6:7c:82:36:7f:
                    80:cb:cb:52:58:6a:39:bf:96:5c:f0:14:1c:c0:77:
                    f4:64:72:cd:ea:c0:fd:9b:6b:95:4a:9f:fa:52:a8:
                    d2:e5:9c:a1:cc:5e:45:ce:fb:d4:a3:7c:70:f1:f7:
                    9c:76:74:ad:5d:07:c7:86:40:67:2e:94:e3:1c:4e:
                    6d:ee:2b:b5:25:58:d3:b8:4d:29:70:1b:da:87:67:
                    56:a8:33:71:88:83:90:b5:7c:8a:5b:c4:9a:83:56:
                    31:6a:e9:f1:40:6a:91:37:29:12:16:21:09:8a:77:
                    71:39:20:27:03:12:ba:ab:fc:06:a9:c6:77:ce:f1:
                    41:4d:c5:55:92:38:b5:bb:64:07:e2:b3:8c:3f:73:
                    cf:c4:02:0c:90:1f:0e:36:47:47:4d:ca:35:0e:66:
                    c4:e8:17:c3:1c:0a:c3:a9:46:31:a8:95:25:3c:69:
                    4c:aa:b2:9b:dd:f0:85:89:3d:de:5d:e8:70:47:b9:
                    e5:cd
                Exponent: 65537 (0x10001)
        X509v3 extensions:
            X509v3 Basic Constraints: 
                CA:FALSE
            Netscape Comment: 
                OpenSSL Generated Certificate
            X509v3 Subject Key Identifier: 
                9F:14:77:BF:3F:3A:B6:CA:38:82:42:48:16:2C:DA:D0:CB:5E:87:D8
            X509v3 Authority Key Identifier: 
                keyid:7B:9A:DA:8F:90:99:4E:52:D2:AC:DB:B3:03:52:CA:87:A6:0D:3E:0D

    Signature Algorithm: sha1WithRSAEncryption
        b2:76:ee:2d:e8:91:5f:ca:be:50:e9:e8:a3:08:0f:78:1d:21:
        39:7a:f0:fc:88:b7:3c:f1:f9:2a:ae:17:c8:1a:84:c8:74:d7:
        a3:57:ef:7c:ff:a1:56:68:55:43:5d:7e:d9:5a:f3:03:d4:07:
        51:b0:22:40:27:1a:48:50:f4:b1:ca:b2:90:5d:6d:18:82:8f:
        48:0c:98:b0:ac:5f:c4:ab:8c:5b:eb:ed:c6:1b:d9:c2:ba:27:
        f7:c9:7b:dd:a5:d6:d8:3f:ed:8e:28:ed:5f:ec:e0:90:5e:fd:
        cc:bd:53:dc:3c:6b:47:2d:b8:39:84:04:28:02:ef:ce:09:30:
        3b:53:eb:b9:25:45:fa:ff:d8:b9:6a:5a:19:4e:12:ae:e9:50:
        5c:51:2d:b8:69:aa:e6:80:1d:23:a3:98:87:16:9d:5a:70:f4:
        1b:0e:ee:a7:b8:ea:18:9d:82:7d:fd:84:a8:75:5a:32:8a:d9:
        57:0b:ff:76:11:b0:2e:30:52:2d:0f:06:d1:56:e9:27:0c:0a:
        e3:21:80:84:57:48:f5:39:e5:16:9e:50:89:4e:74:f8:e3:af:
        54:94:35:61:88:77:5a:c3:ed:6d:7a:49:ca:70:9e:49:e7:df:
        5d:05:37:11:4c:1d:52:34:19:31:85:90:d7:64:8a:53:42:14:
        97:08:a1:10
-----BEGIN CERTIFICATE-----
MIIESzCCAzOgAwIBAgIJAIz+EYMBU6aTMA0GCSqGSIb3DQEBBQUAMIGiMQswCQYD
VQQGEwJDQTELMAkGA1UECBMCQkMxEjAQBgNVBAcTCVZhbmNvdXZlcjEWMBQGA1UE
ChMNd3d3LmN1Y2JjLmNvbTEUMBIGA1UECxQLY29tbW9uc19zc2wxHTAbBgNVBAMU
FGRlbW9faW50ZXJtZWRpYXRlX2NhMSUwIwYJKoZIhvcNAQkBFhZqdWxpdXNkYXZp
ZXNAZ21haWwuY29tMB4XDTA2MTIxMTE1NDIxNVoXDTI4MTEwNTE1NDIxNVowgakx
CzAJBgNVBAYTAlVTMREwDwYDVQQIDAhNYXJ5bGFuZDEUMBIGA1UEBwwLRm9yZXN0
IEhpbGwxFzAVBgNVBAoMDmh0dHBjb21wb25lbnRzMRowGAYDVQQLDBF0ZXN0IGNl
cnRpZmljYXRlczEVMBMGA1UEAwwM6Iqx5a2QLmNvLmpwMSUwIwYJKoZIhvcNAQkB
FhZqdWxpdXNkYXZpZXNAZ21haWwuY29tMIIBIjANBgkqhkiG9w0BAQEFAAOCAQ8A
MIIBCgKCAQEAyGOvloI+jKnRHWKuhYB+cTIEwZhagKJ0f3rIY8WNgujB7PlpgpjU
g4pNjYGViGjg7zhfbjhCtlNGXyRBti3GcaHiBIIP5nyCNn+Ay8tSWGo5v5Zc8BQc
wHf0ZHLN6sD9m2uVSp/6UqjS5ZyhzF5FzvvUo3xw8fecdnStXQfHhkBnLpTjHE5t
7iu1JVjTuE0pcBvah2dWqDNxiIOQtXyKW8Sag1YxaunxQGqRNykSFiEJindxOSAn
AxK6q/wGqcZ3zvFBTcVVkji1u2QH4rOMP3PPxAIMkB8ONkdHTco1DmbE6BfDHArD
qUYxqJUlPGlMqrKb3fCFiT3eXehwR7nlzQIDAQABo3sweTAJBgNVHRMEAjAAMCwG
CWCGSAGG+EIBDQQfFh1PcGVuU1NMIEdlbmVyYXRlZCBDZXJ0aWZpY2F0ZTAdBgNV
HQ4EFgQUnxR3vz86tso4gkJIFiza0Mteh9gwHwYDVR0jBBgwFoAUe5raj5CZTlLS
rNuzA1LKh6YNPg0wDQYJKoZIhvcNAQEFBQADggEBALJ27i3okV/KvlDp6KMID3gd
ITl68PyItzzx+SquF8gahMh016NX73z/oVZoVUNdftla8wPUB1GwIkAnGkhQ9LHK
spBdbRiCj0gMmLCsX8SrjFvr7cYb2cK6J/fJe92l1tg/7Y4o7V/s4JBe/cy9U9w8
a0ctuDmEBCgC784JMDtT67klRfr/2LlqWhlOEq7pUFxRLbhpquaAHSOjmIcWnVpw
9BsO7qe46hidgn39hKh1WjKK2VcL/3YRsC4wUi0PBtFW6ScMCuMhgIRXSPU55Rae
UIlOdPjjr1SUNWGId1rD7W16Scpwnknn310FNxFMHVI0GTGFkNdkilNCFJcIoRA=
-----END CERTIFICATE-----
