Certificate:
    Data:
        Version: 3 (0x2)
        Serial Number:
            8c:fe:11:83:01:53:a6:96
        Signature Algorithm: sha1WithRSAEncryption
        Issuer: C=CA, ST=BC, L=Vancouver, O=www.cucbc.com, OU=commons_ssl, CN=demo_intermediate_ca/emailAddress=juliusdavies@gmail.com
        Validity
            Not Before: Dec 11 16:17:31 2006 GMT
            Not After : Nov  5 16:17:31 2028 GMT
        Subject: C=US, ST=Maryland, L=Forest Hill, O=httpcomponents, OU=test certificates, CN=*.foo.com/emailAddress=juliusdavies@gmail.com
        Subject Public Key Info:
            Public Key Algorithm: rsaEncryption
            RSA Public Key: (2048 bit)
                Modulus (2048 bit):
                    00:c8:63:af:96:82:3e:8c:a9:d1:1d:62:ae:85:80:
                    7e:71:32:04:c1:98:5a:80:a2:74:7f:7a:c8:63:c5:
                    8d:82:e8:c1:ec:f9:69:82:98:d4:83:8a:4d:8d:81:
                    95:88:68:e0:ef:38:5f:6e:38:42:b6:53:46:5f:24:
                    41:b6:2d:c6:71:a1:e2:04:82:0f:e6:7c:82:36:7f:
                    80:cb:cb:52:58:6a:39:bf:96:5c:f0:14:1c:c0:77:
                    f4:64:72:cd:ea:c0:fd:9b:6b:95:4a:9f:fa:52:a8:
                    d2:e5:9c:a1:cc:5e:45:ce:fb:d4:a3:7c:70:f1:f7:
                    9c:76:74:ad:5d:07:c7:86:40:67:2e:94:e3:1c:4e:
                    6d:ee:2b:b5:25:58:d3:b8:4d:29:70:1b:da:87:67:
                    56:a8:33:71:88:83:90:b5:7c:8a:5b:c4:9a:83:56:
                    31:6a:e9:f1:40:6a:91:37:29:12:16:21:09:8a:77:
                    71:39:20:27:03:12:ba:ab:fc:06:a9:c6:77:ce:f1:
                    41:4d:c5:55:92:38:b5:bb:64:07:e2:b3:8c:3f:73:
                    cf:c4:02:0c:90:1f:0e:36:47:47:4d:ca:35:0e:66:
                    c4:e8:17:c3:1c:0a:c3:a9:46:31:a8:95:25:3c:69:
                    4c:aa:b2:9b:dd:f0:85:89:3d:de:5d:e8:70:47:b9:
                    e5:cd
                Exponent: 65537 (0x10001)
        X509v3 extensions:
            X509v3 Basic Constraints: 
                CA:FALSE
            Netscape Comment: 
                OpenSSL Generated Certificate
            X509v3 Subject Key Identifier: 
                9F:14:77:BF:3F:3A:B6:CA:38:82:42:48:16:2C:DA:D0:CB:5E:87:D8
            X509v3 Authority Key Identifier: 
                keyid:7B:9A:DA:8F:90:99:4E:52:D2:AC:DB:B3:03:52:CA:87:A6:0D:3E:0D

            X509v3 Subject Alternative Name: 
                DNS:*.bar.com, DNS:*.花子.co.jp
    Signature Algorithm: sha1WithRSAEncryption
        68:6d:60:be:0f:9f:e5:c7:a6:21:5f:ae:02:c1:9d:ba:5c:b8:
        f1:68:4d:12:e3:5e:5a:8d:b0:6a:0c:ae:e5:cf:e4:60:ef:33:
        84:dc:6b:13:00:c8:be:95:d5:18:9e:1c:b3:d3:00:e2:5c:1f:
        14:c0:a5:e5:d1:20:d3:a0:1d:99:e0:63:a0:a9:08:c0:aa:83:
        26:ac:fd:2e:58:1e:98:e9:da:64:7d:dd:6a:0d:15:33:23:5d:
        b4:cc:f6:20:49:db:17:8c:75:bd:ab:61:fb:ee:25:76:df:c8:
        6a:21:4e:ea:0a:f1:33:fa:57:ea:a9:61:18:e7:4e:33:85:83:
        65:92:76:d4:9d:1e:76:e4:8b:68:b0:45:70:5c:50:49:4e:46:
        77:63:0f:20:83:4d:9c:d7:dc:a2:f1:30:21:e4:b8:b7:01:df:
        17:42:69:92:24:c5:81:57:85:ca:a8:5a:f4:00:86:4a:06:58:
        3a:35:96:45:7f:fd:1d:3f:dc:dc:2a:1c:d2:ae:25:b6:ed:b6:
        34:5d:fc:c0:e8:64:a2:44:35:eb:0e:38:17:ab:a6:da:45:3e:
        98:c2:02:20:a6:02:6c:0d:b2:6d:65:f1:e7:57:59:dd:dc:ce:
        b3:3a:d4:0f:9b:54:c8:42:93:66:30:c3:1d:fc:33:eb:19:c5:
        10:7a:b0:f7
-----BEGIN CERTIFICATE-----
MIIEcDCCA1igAwIBAgIJAIz+EYMBU6aWMA0GCSqGSIb3DQEBBQUAMIGiMQswCQYD
VQQGEwJDQTELMAkGA1UECBMCQkMxEjAQBgNVBAcTCVZhbmNvdXZlcjEWMBQGA1UE
ChMNd3d3LmN1Y2JjLmNvbTEUMBIGA1UECxQLY29tbW9uc19zc2wxHTAbBgNVBAMU
FGRlbW9faW50ZXJtZWRpYXRlX2NhMSUwIwYJKoZIhvcNAQkBFhZqdWxpdXNkYXZp
ZXNAZ21haWwuY29tMB4XDTA2MTIxMTE2MTczMVoXDTI4MTEwNTE2MTczMVowgaYx
CzAJBgNVBAYTAlVTMREwDwYDVQQIEwhNYXJ5bGFuZDEUMBIGA1UEBxMLRm9yZXN0
IEhpbGwxFzAVBgNVBAoTDmh0dHBjb21wb25lbnRzMRowGAYDVQQLExF0ZXN0IGNl
cnRpZmljYXRlczESMBAGA1UEAxQJKi5mb28uY29tMSUwIwYJKoZIhvcNAQkBFhZq
dWxpdXNkYXZpZXNAZ21haWwuY29tMIIBIjANBgkqhkiG9w0BAQEFAAOCAQ8AMIIB
CgKCAQEAyGOvloI+jKnRHWKuhYB+cTIEwZhagKJ0f3rIY8WNgujB7PlpgpjUg4pN
jYGViGjg7zhfbjhCtlNGXyRBti3GcaHiBIIP5nyCNn+Ay8tSWGo5v5Zc8BQcwHf0
ZHLN6sD9m2uVSp/6UqjS5ZyhzF5FzvvUo3xw8fecdnStXQfHhkBnLpTjHE5t7iu1
JVjTuE0pcBvah2dWqDNxiIOQtXyKW8Sag1YxaunxQGqRNykSFiEJindxOSAnAxK6
q/wGqcZ3zvFBTcVVkji1u2QH4rOMP3PPxAIMkB8ONkdHTco1DmbE6BfDHArDqUYx
qJUlPGlMqrKb3fCFiT3eXehwR7nlzQIDAQABo4GiMIGfMAkGA1UdEwQCMAAwLAYJ
YIZIAYb4QgENBB8WHU9wZW5TU0wgR2VuZXJhdGVkIENlcnRpZmljYXRlMB0GA1Ud
DgQWBBSfFHe/Pzq2yjiCQkgWLNrQy16H2DAfBgNVHSMEGDAWgBR7mtqPkJlOUtKs
27MDUsqHpg0+DTAkBgNVHREEHTAbggkqLmJhci5jb22CDiou6Iqx5a2QLmNvLmpw
MA0GCSqGSIb3DQEBBQUAA4IBAQBobWC+D5/lx6YhX64CwZ26XLjxaE0S415ajbBq
DK7lz+Rg7zOE3GsTAMi+ldUYnhyz0wDiXB8UwKXl0SDToB2Z4GOgqQjAqoMmrP0u
WB6Y6dpkfd1qDRUzI120zPYgSdsXjHW9q2H77iV238hqIU7qCvEz+lfqqWEY504z
hYNlknbUnR525ItosEVwXFBJTkZ3Yw8gg02c19yi8TAh5Li3Ad8XQmmSJMWBV4XK
qFr0AIZKBlg6NZZFf/0dP9zcKhzSriW27bY0XfzA6GSiRDXrDjgXq6baRT6YwgIg
pgJsDbJtZfHnV1nd3M6zOtQPm1TIQpNmMMMd/DPrGcUQerD3
-----END CERTIFICATE-----
