Certificate:
    Data:
        Version: 3 (0x2)
        Serial Number:
            8c:fe:11:83:01:53:a6:91
        Signature Algorithm: sha1WithRSAEncryption
        Issuer: C=CA, ST=BC, L=Vancouver, O=www.cucbc.com, OU=commons_ssl, CN=demo_intermediate_ca/emailAddress=juliusdavies@gmail.com
        Validity
            Not Before: Dec 11 15:36:29 2006 GMT
            Not After : Nov  5 15:36:29 2028 GMT
        Subject: C=US, ST=Maryland, L=Forest Hill, O=httpcomponents, OU=test certificates, CN=foo.com/emailAddress=juliusdavies@gmail.com
        Subject Public Key Info:
            Public Key Algorithm: rsaEncryption
            RSA Public Key: (2048 bit)
                Modulus (2048 bit):
                    00:c8:63:af:96:82:3e:8c:a9:d1:1d:62:ae:85:80:
                    7e:71:32:04:c1:98:5a:80:a2:74:7f:7a:c8:63:c5:
                    8d:82:e8:c1:ec:f9:69:82:98:d4:83:8a:4d:8d:81:
                    95:88:68:e0:ef:38:5f:6e:38:42:b6:53:46:5f:24:
                    41:b6:2d:c6:71:a1:e2:04:82:0f:e6:7c:82:36:7f:
                    80:cb:cb:52:58:6a:39:bf:96:5c:f0:14:1c:c0:77:
                    f4:64:72:cd:ea:c0:fd:9b:6b:95:4a:9f:fa:52:a8:
                    d2:e5:9c:a1:cc:5e:45:ce:fb:d4:a3:7c:70:f1:f7:
                    9c:76:74:ad:5d:07:c7:86:40:67:2e:94:e3:1c:4e:
                    6d:ee:2b:b5:25:58:d3:b8:4d:29:70:1b:da:87:67:
                    56:a8:33:71:88:83:90:b5:7c:8a:5b:c4:9a:83:56:
                    31:6a:e9:f1:40:6a:91:37:29:12:16:21:09:8a:77:
                    71:39:20:27:03:12:ba:ab:fc:06:a9:c6:77:ce:f1:
                    41:4d:c5:55:92:38:b5:bb:64:07:e2:b3:8c:3f:73:
                    cf:c4:02:0c:90:1f:0e:36:47:47:4d:ca:35:0e:66:
                    c4:e8:17:c3:1c:0a:c3:a9:46:31:a8:95:25:3c:69:
                    4c:aa:b2:9b:dd:f0:85:89:3d:de:5d:e8:70:47:b9:
                    e5:cd
                Exponent: 65537 (0x10001)
        X509v3 extensions:
            X509v3 Basic Constraints: 
                CA:FALSE
            Netscape Comment: 
                OpenSSL Generated Certificate
            X509v3 Subject Key Identifier: 
                9F:14:77:BF:3F:3A:B6:CA:38:82:42:48:16:2C:DA:D0:CB:5E:87:D8
            X509v3 Authority Key Identifier: 
                keyid:7B:9A:DA:8F:90:99:4E:52:D2:AC:DB:B3:03:52:CA:87:A6:0D:3E:0D

            X509v3 Subject Alternative Name: 
                DNS:bar.com
    Signature Algorithm: sha1WithRSAEncryption
        75:0c:a9:ac:d6:41:99:59:ef:b9:55:a3:57:8d:ac:7b:2f:cf:
        4d:f9:18:4a:12:70:cb:58:f4:fe:37:05:65:1f:f2:a5:95:28:
        be:98:87:18:33:b5:0e:02:f7:63:72:0f:cd:54:36:ea:e8:54:
        b1:2c:3a:1b:48:06:46:26:81:0d:ef:f4:2d:47:25:5d:9a:09:
        cd:75:f5:aa:94:b9:e4:e6:9d:c5:6e:f7:6e:bc:e2:4b:4b:31:
        46:01:ab:64:4f:dd:de:0e:64:92:2a:3a:20:40:f8:ec:e3:fa:
        c1:89:e5:99:9e:c4:28:ff:5c:aa:35:b0:96:7b:c7:9e:75:1c:
        67:64:ac:72:82:cd:62:cf:6b:37:d7:1c:a7:cb:6e:ab:66:f2:
        f3:c3:b2:84:ac:06:8c:97:e1:3a:e7:6a:7d:33:59:70:3c:d1:
        1f:1e:05:ce:6e:d4:b1:56:b2:71:5c:38:b8:39:a1:10:72:6b:
        02:c9:8c:3e:98:ff:f9:74:4a:f7:fe:36:db:1a:be:f1:b7:3a:
        1e:88:dd:b5:b0:b2:ba:0f:df:bc:16:6f:66:a4:17:4a:65:3c:
        9b:c2:15:70:c9:96:33:3d:19:40:ef:1e:7b:74:24:04:73:19:
        7c:2c:bb:3f:f9:2b:55:b5:b1:fe:e1:13:22:65:2e:f8:d6:60:
        db:67:b0:13
-----BEGIN CERTIFICATE-----
MIIEXDCCA0SgAwIBAgIJAIz+EYMBU6aRMA0GCSqGSIb3DQEBBQUAMIGiMQswCQYD
VQQGEwJDQTELMAkGA1UECBMCQkMxEjAQBgNVBAcTCVZhbmNvdXZlcjEWMBQGA1UE
ChMNd3d3LmN1Y2JjLmNvbTEUMBIGA1UECxQLY29tbW9uc19zc2wxHTAbBgNVBAMU
FGRlbW9faW50ZXJtZWRpYXRlX2NhMSUwIwYJKoZIhvcNAQkBFhZqdWxpdXNkYXZp
ZXNAZ21haWwuY29tMB4XDTA2MTIxMTE1MzYyOVoXDTI4MTEwNTE1MzYyOVowgaQx
CzAJBgNVBAYTAlVTMREwDwYDVQQIEwhNYXJ5bGFuZDEUMBIGA1UEBxMLRm9yZXN0
IEhpbGwxFzAVBgNVBAoTDmh0dHBjb21wb25lbnRzMRowGAYDVQQLExF0ZXN0IGNl
cnRpZmljYXRlczEQMA4GA1UEAxMHZm9vLmNvbTElMCMGCSqGSIb3DQEJARYWanVs
aXVzZGF2aWVzQGdtYWlsLmNvbTCCASIwDQYJKoZIhvcNAQEBBQADggEPADCCAQoC
ggEBAMhjr5aCPoyp0R1iroWAfnEyBMGYWoCidH96yGPFjYLowez5aYKY1IOKTY2B
lYho4O84X244QrZTRl8kQbYtxnGh4gSCD+Z8gjZ/gMvLUlhqOb+WXPAUHMB39GRy
zerA/ZtrlUqf+lKo0uWcocxeRc771KN8cPH3nHZ0rV0Hx4ZAZy6U4xxObe4rtSVY
07hNKXAb2odnVqgzcYiDkLV8ilvEmoNWMWrp8UBqkTcpEhYhCYp3cTkgJwMSuqv8
BqnGd87xQU3FVZI4tbtkB+KzjD9zz8QCDJAfDjZHR03KNQ5mxOgXwxwKw6lGMaiV
JTxpTKqym93whYk93l3ocEe55c0CAwEAAaOBkDCBjTAJBgNVHRMEAjAAMCwGCWCG
SAGG+EIBDQQfFh1PcGVuU1NMIEdlbmVyYXRlZCBDZXJ0aWZpY2F0ZTAdBgNVHQ4E
FgQUnxR3vz86tso4gkJIFiza0Mteh9gwHwYDVR0jBBgwFoAUe5raj5CZTlLSrNuz
A1LKh6YNPg0wEgYDVR0RBAswCYIHYmFyLmNvbTANBgkqhkiG9w0BAQUFAAOCAQEA
dQyprNZBmVnvuVWjV42sey/PTfkYShJwy1j0/jcFZR/ypZUovpiHGDO1DgL3Y3IP
zVQ26uhUsSw6G0gGRiaBDe/0LUclXZoJzXX1qpS55OadxW73brziS0sxRgGrZE/d
3g5kkio6IED47OP6wYnlmZ7EKP9cqjWwlnvHnnUcZ2SscoLNYs9rN9ccp8tuq2by
88OyhKwGjJfhOudqfTNZcDzRHx4Fzm7UsVaycVw4uDmhEHJrAsmMPpj/+XRK9/42
2xq+8bc6HojdtbCyug/fvBZvZqQXSmU8m8IVcMmWMz0ZQO8ee3QkBHMZfCy7P/kr
VbWx/uETImUu+NZg22ewEw==
-----END CERTIFICATE-----
