Certificate:
    Data:
        Version: 3 (0x2)
        Serial Number:
            94:cd:c1:9e:b2:35:ae:5b
        Signature Algorithm: sha1WithRSAEncryption
        Issuer: C=CA, ST=BC, O=www.cucbc.com, OU=commons_ssl, CN=demo_root_ca/emailAddress=juliusdavies@gmail.com
        Validity
            Not Before: Nov  5 21:36:43 2006 GMT
            Not After : Nov  5 21:36:43 2026 GMT
        Subject: C=CA, ST=BC, O=www.cucbc.com, OU=commons_ssl, CN=demo_root_ca/emailAddress=juliusdavies@gmail.com
        Subject Public Key Info:
            Public Key Algorithm: rsaEncryption
            RSA Public Key: (2048 bit)
                Modulus (2048 bit):
                    00:bf:e3:a7:a1:c9:89:ef:d5:1e:3b:68:65:0b:02:
                    be:0a:57:b9:b9:95:a7:53:ab:b0:26:5f:b4:f3:3e:
                    5c:bd:e6:db:e6:d4:fa:e1:62:fd:fa:9b:03:6d:f8:
                    14:1f:f1:a6:f4:9b:2e:c4:a4:e0:c3:5b:59:3b:fe:
                    1d:b8:88:27:68:b3:52:c7:81:e8:a9:a4:e3:c2:28:
                    1d:fe:14:77:4e:ca:06:10:f5:d3:0a:4c:f5:8a:48:
                    13:08:e1:03:be:5f:a2:32:27:7a:68:ea:dd:99:58:
                    84:f0:78:6c:73:12:99:fa:1e:45:13:ba:07:67:2b:
                    93:ea:01:68:89:a2:17:84:5a:be:c4:ad:b0:e1:9c:
                    03:cf:d2:fe:a5:a8:b0:ab:2c:32:50:92:4c:9e:1f:
                    54:8c:aa:2b:63:e9:ee:6b:cd:4d:d2:8c:69:22:11:
                    cf:b2:90:9a:9c:35:38:9d:e3:33:0b:36:0e:67:22:
                    d1:fc:ba:95:e7:13:91:bc:77:05:63:ce:06:58:cc:
                    f9:84:8d:b9:25:b8:1a:58:9b:18:2a:e0:80:bc:db:
                    27:43:05:68:a8:a3:c6:6b:bc:75:7e:7e:f1:ea:81:
                    ac:5c:96:82:56:df:30:79:4c:08:8f:6c:70:83:59:
                    71:32:1a:cd:6a:2b:07:12:f2:a9:10:01:27:18:6c:
                    16:29
                Exponent: 65537 (0x10001)
        X509v3 extensions:
            X509v3 Subject Key Identifier: 
                AC:DF:1E:14:8B:CC:89:11:57:5E:00:EA:2A:E9:92:D3:F5:B6:02:13
            X509v3 Authority Key Identifier: 
                keyid:AC:DF:1E:14:8B:CC:89:11:57:5E:00:EA:2A:E9:92:D3:F5:B6:02:13
                DirName:/C=CA/ST=BC/O=www.cucbc.com/OU=commons_ssl/CN=demo_root_ca/emailAddress=juliusdavies@gmail.com
                serial:94:CD:C1:9E:B2:35:AE:5B

            X509v3 Basic Constraints: 
                CA:TRUE
    Signature Algorithm: sha1WithRSAEncryption
        94:f9:77:ff:c8:75:2e:db:51:d6:cb:c2:4b:c4:57:6c:7a:40:
        58:84:f6:04:40:e1:18:75:0d:8d:29:a0:0d:03:64:13:f8:ad:
        7f:f1:42:11:78:74:b6:55:38:6d:87:6d:05:23:87:cd:f9:5b:
        9f:33:b2:20:f2:1d:55:97:92:5a:cd:f7:57:7f:31:0c:5c:ba:
        2a:85:60:d6:04:fc:27:19:0b:98:4e:52:d6:f5:a4:a6:c1:c8:
        96:9c:3f:53:aa:fb:28:3d:0a:c7:d1:58:c7:90:22:5e:3c:34:
        97:3c:ff:ce:55:4d:b8:ed:94:d3:d2:88:0f:00:cf:54:6d:66:
        07:34:22:32:24:96:8f:55:35:a4:ce:0a:c4:83:64:59:0c:03:
        cb:f7:ef:bb:f2:3d:f3:7b:3c:95:6e:73:85:fd:96:b8:53:73:
        40:dd:df:70:c2:b9:76:90:44:f4:d5:48:bb:6e:e8:62:e1:98:
        87:6b:1a:93:7e:2f:fb:b4:fb:d3:45:b6:a2:80:41:ef:5a:85:
        5e:d9:bd:3f:9a:e5:62:9f:51:08:4b:20:dc:a1:04:3c:d4:ed:
        08:1b:3c:7d:13:9e:5e:f2:c3:ac:fd:1c:98:12:2a:c0:66:03:
        b9:13:42:c4:50:d3:39:d8:ef:e9:81:9d:03:c9:cb:3a:36:87:
        d9:d0:e4:d2
-----BEGIN CERTIFICATE-----
MIIEgDCCA2igAwIBAgIJAJTNwZ6yNa5bMA0GCSqGSIb3DQEBBQUAMIGGMQswCQYD
VQQGEwJDQTELMAkGA1UECBMCQkMxFjAUBgNVBAoTDXd3dy5jdWNiYy5jb20xFDAS
BgNVBAsUC2NvbW1vbnNfc3NsMRUwEwYDVQQDFAxkZW1vX3Jvb3RfY2ExJTAjBgkq
hkiG9w0BCQEWFmp1bGl1c2Rhdmllc0BnbWFpbC5jb20wHhcNMDYxMTA1MjEzNjQz
WhcNMjYxMTA1MjEzNjQzWjCBhjELMAkGA1UEBhMCQ0ExCzAJBgNVBAgTAkJDMRYw
FAYDVQQKEw13d3cuY3VjYmMuY29tMRQwEgYDVQQLFAtjb21tb25zX3NzbDEVMBMG
A1UEAxQMZGVtb19yb290X2NhMSUwIwYJKoZIhvcNAQkBFhZqdWxpdXNkYXZpZXNA
Z21haWwuY29tMIIBIjANBgkqhkiG9w0BAQEFAAOCAQ8AMIIBCgKCAQEAv+OnocmJ
79UeO2hlCwK+Cle5uZWnU6uwJl+08z5cvebb5tT64WL9+psDbfgUH/Gm9JsuxKTg
w1tZO/4duIgnaLNSx4HoqaTjwigd/hR3TsoGEPXTCkz1ikgTCOEDvl+iMid6aOrd
mViE8HhscxKZ+h5FE7oHZyuT6gFoiaIXhFq+xK2w4ZwDz9L+paiwqywyUJJMnh9U
jKorY+nua81N0oxpIhHPspCanDU4neMzCzYOZyLR/LqV5xORvHcFY84GWMz5hI25
JbgaWJsYKuCAvNsnQwVoqKPGa7x1fn7x6oGsXJaCVt8weUwIj2xwg1lxMhrNaisH
EvKpEAEnGGwWKQIDAQABo4HuMIHrMB0GA1UdDgQWBBSs3x4Ui8yJEVdeAOoq6ZLT
9bYCEzCBuwYDVR0jBIGzMIGwgBSs3x4Ui8yJEVdeAOoq6ZLT9bYCE6GBjKSBiTCB
hjELMAkGA1UEBhMCQ0ExCzAJBgNVBAgTAkJDMRYwFAYDVQQKEw13d3cuY3VjYmMu
Y29tMRQwEgYDVQQLFAtjb21tb25zX3NzbDEVMBMGA1UEAxQMZGVtb19yb290X2Nh
MSUwIwYJKoZIhvcNAQkBFhZqdWxpdXNkYXZpZXNAZ21haWwuY29tggkAlM3BnrI1
rlswDAYDVR0TBAUwAwEB/zANBgkqhkiG9w0BAQUFAAOCAQEAlPl3/8h1LttR1svC
S8RXbHpAWIT2BEDhGHUNjSmgDQNkE/itf/FCEXh0tlU4bYdtBSOHzflbnzOyIPId
VZeSWs33V38xDFy6KoVg1gT8JxkLmE5S1vWkpsHIlpw/U6r7KD0Kx9FYx5AiXjw0
lzz/zlVNuO2U09KIDwDPVG1mBzQiMiSWj1U1pM4KxINkWQwDy/fvu/I983s8lW5z
hf2WuFNzQN3fcMK5dpBE9NVIu27oYuGYh2sak34v+7T700W2ooBB71qFXtm9P5rl
Yp9RCEsg3KEEPNTtCBs8fROeXvLDrP0cmBIqwGYDuRNCxFDTOdjv6YGdA8nLOjaH
2dDk0g==
-----END CERTIFICATE-----
