Certificate:
    Data:
        Version: 3 (0x2)
        Serial Number:
            8c:fe:11:83:01:53:a6:95
        Signature Algorithm: sha1WithRSAEncryption
        Issuer: C=CA, ST=BC, L=Vancouver, O=www.cucbc.com, OU=commons_ssl, CN=demo_intermediate_ca/emailAddress=juliusdavies@gmail.com
        Validity
            Not Before: Dec 11 16:16:30 2006 GMT
            Not After : Nov  5 16:16:30 2028 GMT
        Subject: C=US, ST=Maryland, L=Forest Hill, O=httpcomponents, OU=test certificates, CN=*.co.jp/emailAddress=juliusdavies@gmail.com
        Subject Public Key Info:
            Public Key Algorithm: rsaEncryption
            RSA Public Key: (2048 bit)
                Modulus (2048 bit):
                    00:c8:63:af:96:82:3e:8c:a9:d1:1d:62:ae:85:80:
                    7e:71:32:04:c1:98:5a:80:a2:74:7f:7a:c8:63:c5:
                    8d:82:e8:c1:ec:f9:69:82:98:d4:83:8a:4d:8d:81:
                    95:88:68:e0:ef:38:5f:6e:38:42:b6:53:46:5f:24:
                    41:b6:2d:c6:71:a1:e2:04:82:0f:e6:7c:82:36:7f:
                    80:cb:cb:52:58:6a:39:bf:96:5c:f0:14:1c:c0:77:
                    f4:64:72:cd:ea:c0:fd:9b:6b:95:4a:9f:fa:52:a8:
                    d2:e5:9c:a1:cc:5e:45:ce:fb:d4:a3:7c:70:f1:f7:
                    9c:76:74:ad:5d:07:c7:86:40:67:2e:94:e3:1c:4e:
                    6d:ee:2b:b5:25:58:d3:b8:4d:29:70:1b:da:87:67:
                    56:a8:33:71:88:83:90:b5:7c:8a:5b:c4:9a:83:56:
                    31:6a:e9:f1:40:6a:91:37:29:12:16:21:09:8a:77:
                    71:39:20:27:03:12:ba:ab:fc:06:a9:c6:77:ce:f1:
                    41:4d:c5:55:92:38:b5:bb:64:07:e2:b3:8c:3f:73:
                    cf:c4:02:0c:90:1f:0e:36:47:47:4d:ca:35:0e:66:
                    c4:e8:17:c3:1c:0a:c3:a9:46:31:a8:95:25:3c:69:
                    4c:aa:b2:9b:dd:f0:85:89:3d:de:5d:e8:70:47:b9:
                    e5:cd
                Exponent: 65537 (0x10001)
        X509v3 extensions:
            X509v3 Basic Constraints: 
                CA:FALSE
            Netscape Comment: 
                OpenSSL Generated Certificate
            X509v3 Subject Key Identifier: 
                9F:14:77:BF:3F:3A:B6:CA:38:82:42:48:16:2C:DA:D0:CB:5E:87:D8
            X509v3 Authority Key Identifier: 
                keyid:7B:9A:DA:8F:90:99:4E:52:D2:AC:DB:B3:03:52:CA:87:A6:0D:3E:0D

    Signature Algorithm: sha1WithRSAEncryption
        34:b1:68:25:56:53:31:db:33:46:bd:4a:85:0b:bd:d7:b5:11:
        30:8a:2e:77:09:f3:0c:ea:6b:5f:db:e7:f7:93:f7:7c:29:78:
        4b:37:24:ab:83:c4:51:94:dd:75:ce:09:a9:3d:a2:ed:6d:d4:
        cb:ae:61:b8:51:d0:07:1d:8a:fc:3b:8c:b6:04:19:84:d5:cc:
        4d:7c:6c:71:79:c8:60:17:c1:d7:d7:44:15:e1:d9:32:ce:9e:
        99:d5:c7:f0:bc:27:8c:ad:3e:46:fd:5d:69:7a:36:a0:a3:46:
        b2:5f:1f:86:3c:b6:d6:94:d7:99:4b:e2:a5:d2:6d:e9:f9:0a:
        65:5e:e8:ed:c0:6e:5f:61:c2:29:68:6a:62:62:b6:81:2f:1d:
        d3:69:d8:a1:df:d4:0d:eb:90:a7:02:1f:f3:44:38:4b:09:4c:
        ca:ca:df:65:50:63:cb:11:40:f3:44:73:0f:1c:b9:d2:a9:3d:
        67:e5:45:39:50:34:72:b5:b8:c9:3d:7c:c5:fa:5f:fe:59:92:
        2c:6a:77:9f:58:bb:31:9e:48:00:b9:97:bf:a0:c3:05:10:93:
        2b:c8:4c:ce:8e:0e:13:7e:e7:39:a8:cd:04:5e:83:dc:43:f2:
        65:85:e6:b1:67:8d:29:d8:8c:87:a9:bb:16:57:83:11:62:e1:
        47:e1:b9:0c
-----BEGIN CERTIFICATE-----
MIIERjCCAy6gAwIBAgIJAIz+EYMBU6aVMA0GCSqGSIb3DQEBBQUAMIGiMQswCQYD
VQQGEwJDQTELMAkGA1UECBMCQkMxEjAQBgNVBAcTCVZhbmNvdXZlcjEWMBQGA1UE
ChMNd3d3LmN1Y2JjLmNvbTEUMBIGA1UECxQLY29tbW9uc19zc2wxHTAbBgNVBAMU
FGRlbW9faW50ZXJtZWRpYXRlX2NhMSUwIwYJKoZIhvcNAQkBFhZqdWxpdXNkYXZp
ZXNAZ21haWwuY29tMB4XDTA2MTIxMTE2MTYzMFoXDTI4MTEwNTE2MTYzMFowgaQx
CzAJBgNVBAYTAlVTMREwDwYDVQQIEwhNYXJ5bGFuZDEUMBIGA1UEBxMLRm9yZXN0
IEhpbGwxFzAVBgNVBAoTDmh0dHBjb21wb25lbnRzMRowGAYDVQQLExF0ZXN0IGNl
cnRpZmljYXRlczEQMA4GA1UEAxQHKi5jby5qcDElMCMGCSqGSIb3DQEJARYWanVs
aXVzZGF2aWVzQGdtYWlsLmNvbTCCASIwDQYJKoZIhvcNAQEBBQADggEPADCCAQoC
ggEBAMhjr5aCPoyp0R1iroWAfnEyBMGYWoCidH96yGPFjYLowez5aYKY1IOKTY2B
lYho4O84X244QrZTRl8kQbYtxnGh4gSCD+Z8gjZ/gMvLUlhqOb+WXPAUHMB39GRy
zerA/ZtrlUqf+lKo0uWcocxeRc771KN8cPH3nHZ0rV0Hx4ZAZy6U4xxObe4rtSVY
07hNKXAb2odnVqgzcYiDkLV8ilvEmoNWMWrp8UBqkTcpEhYhCYp3cTkgJwMSuqv8
BqnGd87xQU3FVZI4tbtkB+KzjD9zz8QCDJAfDjZHR03KNQ5mxOgXwxwKw6lGMaiV
JTxpTKqym93whYk93l3ocEe55c0CAwEAAaN7MHkwCQYDVR0TBAIwADAsBglghkgB
hvhCAQ0EHxYdT3BlblNTTCBHZW5lcmF0ZWQgQ2VydGlmaWNhdGUwHQYDVR0OBBYE
FJ8Ud78/OrbKOIJCSBYs2tDLXofYMB8GA1UdIwQYMBaAFHua2o+QmU5S0qzbswNS
yoemDT4NMA0GCSqGSIb3DQEBBQUAA4IBAQA0sWglVlMx2zNGvUqFC73XtREwii53
CfMM6mtf2+f3k/d8KXhLNySrg8RRlN11zgmpPaLtbdTLrmG4UdAHHYr8O4y2BBmE
1cxNfGxxechgF8HX10QV4dkyzp6Z1cfwvCeMrT5G/V1pejago0ayXx+GPLbWlNeZ
S+Kl0m3p+QplXujtwG5fYcIpaGpiYraBLx3Tadih39QN65CnAh/zRDhLCUzKyt9l
UGPLEUDzRHMPHLnSqT1n5UU5UDRytbjJPXzF+l/+WZIsanefWLsxnkgAuZe/oMMF
EJMryEzOjg4Tfuc5qM0EXoPcQ/JlheaxZ40p2IyHqbsWV4MRYuFH4bkM
-----END CERTIFICATE-----
