Certificate:
    Data:
        Version: 3 (0x2)
        Serial Number:
            8c:fe:11:83:01:53:a6:94
        Signature Algorithm: sha1WithRSAEncryption
        Issuer: C=CA, ST=BC, L=Vancouver, O=www.cucbc.com, OU=commons_ssl, CN=demo_intermediate_ca/emailAddress=juliusdavies@gmail.com
        Validity
            Not Before: Dec 11 16:15:55 2006 GMT
            Not After : Nov  5 16:15:55 2028 GMT
        Subject: C=US, ST=Maryland, L=Forest Hill, O=httpcomponents, OU=test certificates, CN=*.foo.com/emailAddress=juliusdavies@gmail.com
        Subject Public Key Info:
            Public Key Algorithm: rsaEncryption
            RSA Public Key: (2048 bit)
                Modulus (2048 bit):
                    00:c8:63:af:96:82:3e:8c:a9:d1:1d:62:ae:85:80:
                    7e:71:32:04:c1:98:5a:80:a2:74:7f:7a:c8:63:c5:
                    8d:82:e8:c1:ec:f9:69:82:98:d4:83:8a:4d:8d:81:
                    95:88:68:e0:ef:38:5f:6e:38:42:b6:53:46:5f:24:
                    41:b6:2d:c6:71:a1:e2:04:82:0f:e6:7c:82:36:7f:
                    80:cb:cb:52:58:6a:39:bf:96:5c:f0:14:1c:c0:77:
                    f4:64:72:cd:ea:c0:fd:9b:6b:95:4a:9f:fa:52:a8:
                    d2:e5:9c:a1:cc:5e:45:ce:fb:d4:a3:7c:70:f1:f7:
                    9c:76:74:ad:5d:07:c7:86:40:67:2e:94:e3:1c:4e:
                    6d:ee:2b:b5:25:58:d3:b8:4d:29:70:1b:da:87:67:
                    56:a8:33:71:88:83:90:b5:7c:8a:5b:c4:9a:83:56:
                    31:6a:e9:f1:40:6a:91:37:29:12:16:21:09:8a:77:
                    71:39:20:27:03:12:ba:ab:fc:06:a9:c6:77:ce:f1:
                    41:4d:c5:55:92:38:b5:bb:64:07:e2:b3:8c:3f:73:
                    cf:c4:02:0c:90:1f:0e:36:47:47:4d:ca:35:0e:66:
                    c4:e8:17:c3:1c:0a:c3:a9:46:31:a8:95:25:3c:69:
                    4c:aa:b2:9b:dd:f0:85:89:3d:de:5d:e8:70:47:b9:
                    e5:cd
                Exponent: 65537 (0x10001)
        X509v3 extensions:
            X509v3 Basic Constraints: 
                CA:FALSE
            Netscape Comment: 
                OpenSSL Generated Certificate
            X509v3 Subject Key Identifier: 
                9F:14:77:BF:3F:3A:B6:CA:38:82:42:48:16:2C:DA:D0:CB:5E:87:D8
            X509v3 Authority Key Identifier: 
                keyid:7B:9A:DA:8F:90:99:4E:52:D2:AC:DB:B3:03:52:CA:87:A6:0D:3E:0D

    Signature Algorithm: sha1WithRSAEncryption
        7d:22:a4:6e:89:e7:ad:54:29:47:e0:91:e5:bb:1a:f6:30:5b:
        df:01:37:56:68:a1:65:fe:24:41:19:2b:bf:8f:7f:ff:7a:77:
        72:23:d2:bc:3d:00:27:cd:e1:ba:5f:9c:2a:b4:55:43:59:55:
        26:01:f8:6b:61:43:6c:d8:bb:3e:ed:7f:f5:18:03:a9:f1:56:
        04:7f:22:31:ba:f4:19:ac:06:5f:76:b8:53:bb:25:33:6d:1f:
        3b:6e:88:fa:81:9f:9f:69:b7:eb:cd:c7:8c:8f:be:7a:3b:ce:
        6c:6c:7c:8e:e3:bf:4c:30:c9:fb:3e:d0:53:66:ec:5c:1d:b0:
        2d:64:e3:b1:81:48:e6:86:c3:7f:24:b8:85:56:a9:74:80:6c:
        be:04:5f:d1:a4:af:21:86:38:a1:8d:87:4a:af:00:43:42:75:
        14:81:1b:d6:7a:b7:23:1b:99:f4:58:f9:d2:d2:87:76:bd:27:
        0a:04:70:15:2c:a3:a1:16:60:16:a4:2d:ba:b8:9c:6f:e7:bd:
        87:58:bc:6f:5e:86:b9:cb:57:06:45:2f:cd:9e:97:74:3f:44:
        af:79:6e:70:3a:72:e4:42:94:6b:ac:2d:a7:74:7b:a6:e3:90:
        1c:f1:fd:54:37:55:aa:c3:12:90:24:4c:b5:06:54:06:b4:08:
        b5:ed:9f:27
-----BEGIN CERTIFICATE-----
MIIESDCCAzCgAwIBAgIJAIz+EYMBU6aUMA0GCSqGSIb3DQEBBQUAMIGiMQswCQYD
VQQGEwJDQTELMAkGA1UECBMCQkMxEjAQBgNVBAcTCVZhbmNvdXZlcjEWMBQGA1UE
ChMNd3d3LmN1Y2JjLmNvbTEUMBIGA1UECxQLY29tbW9uc19zc2wxHTAbBgNVBAMU
FGRlbW9faW50ZXJtZWRpYXRlX2NhMSUwIwYJKoZIhvcNAQkBFhZqdWxpdXNkYXZp
ZXNAZ21haWwuY29tMB4XDTA2MTIxMTE2MTU1NVoXDTI4MTEwNTE2MTU1NVowgaYx
CzAJBgNVBAYTAlVTMREwDwYDVQQIEwhNYXJ5bGFuZDEUMBIGA1UEBxMLRm9yZXN0
IEhpbGwxFzAVBgNVBAoTDmh0dHBjb21wb25lbnRzMRowGAYDVQQLExF0ZXN0IGNl
cnRpZmljYXRlczESMBAGA1UEAxQJKi5mb28uY29tMSUwIwYJKoZIhvcNAQkBFhZq
dWxpdXNkYXZpZXNAZ21haWwuY29tMIIBIjANBgkqhkiG9w0BAQEFAAOCAQ8AMIIB
CgKCAQEAyGOvloI+jKnRHWKuhYB+cTIEwZhagKJ0f3rIY8WNgujB7PlpgpjUg4pN
jYGViGjg7zhfbjhCtlNGXyRBti3GcaHiBIIP5nyCNn+Ay8tSWGo5v5Zc8BQcwHf0
ZHLN6sD9m2uVSp/6UqjS5ZyhzF5FzvvUo3xw8fecdnStXQfHhkBnLpTjHE5t7iu1
JVjTuE0pcBvah2dWqDNxiIOQtXyKW8Sag1YxaunxQGqRNykSFiEJindxOSAnAxK6
q/wGqcZ3zvFBTcVVkji1u2QH4rOMP3PPxAIMkB8ONkdHTco1DmbE6BfDHArDqUYx
qJUlPGlMqrKb3fCFiT3eXehwR7nlzQIDAQABo3sweTAJBgNVHRMEAjAAMCwGCWCG
SAGG+EIBDQQfFh1PcGVuU1NMIEdlbmVyYXRlZCBDZXJ0aWZpY2F0ZTAdBgNVHQ4E
FgQUnxR3vz86tso4gkJIFiza0Mteh9gwHwYDVR0jBBgwFoAUe5raj5CZTlLSrNuz
A1LKh6YNPg0wDQYJKoZIhvcNAQEFBQADggEBAH0ipG6J561UKUfgkeW7GvYwW98B
N1ZooWX+JEEZK7+Pf/96d3Ij0rw9ACfN4bpfnCq0VUNZVSYB+GthQ2zYuz7tf/UY
A6nxVgR/IjG69BmsBl92uFO7JTNtHztuiPqBn59pt+vNx4yPvno7zmxsfI7jv0ww
yfs+0FNm7FwdsC1k47GBSOaGw38kuIVWqXSAbL4EX9GkryGGOKGNh0qvAENCdRSB
G9Z6tyMbmfRY+dLSh3a9JwoEcBUso6EWYBakLbq4nG/nvYdYvG9ehrnLVwZFL82e
l3Q/RK95bnA6cuRClGusLad0e6bjkBzx/VQ3VarDEpAkTLUGVAa0CLXtnyc=
-----END CERTIFICATE-----
