Certificate:
    Data:
        Version: 3 (0x2)
        Serial Number:
            8c:fe:11:83:01:53:a6:7f
        Signature Algorithm: sha1WithRSAEncryption
        Issuer: C=CA, ST=BC, L=Vancouver, O=www.cucbc.com, OU=commons_ssl, CN=demo_intermediate_ca/emailAddress=juliusdavies@gmail.com
        Validity
            Not Before: Nov  5 21:52:37 2006 GMT
            Not After : Nov  5 21:52:37 2007 GMT
        Subject: C=CA, ST=BC, L=Vancouver, O=www.cucbc.com, OU=commons_ssl, CN=demo_certificate/emailAddress=juliusdavies@gmail.com
        Subject Public Key Info:
            Public Key Algorithm: rsaEncryption
            RSA Public Key: (2048 bit)
                Modulus (2048 bit):
                    00:c8:63:af:96:82:3e:8c:a9:d1:1d:62:ae:85:80:
                    7e:71:32:04:c1:98:5a:80:a2:74:7f:7a:c8:63:c5:
                    8d:82:e8:c1:ec:f9:69:82:98:d4:83:8a:4d:8d:81:
                    95:88:68:e0:ef:38:5f:6e:38:42:b6:53:46:5f:24:
                    41:b6:2d:c6:71:a1:e2:04:82:0f:e6:7c:82:36:7f:
                    80:cb:cb:52:58:6a:39:bf:96:5c:f0:14:1c:c0:77:
                    f4:64:72:cd:ea:c0:fd:9b:6b:95:4a:9f:fa:52:a8:
                    d2:e5:9c:a1:cc:5e:45:ce:fb:d4:a3:7c:70:f1:f7:
                    9c:76:74:ad:5d:07:c7:86:40:67:2e:94:e3:1c:4e:
                    6d:ee:2b:b5:25:58:d3:b8:4d:29:70:1b:da:87:67:
                    56:a8:33:71:88:83:90:b5:7c:8a:5b:c4:9a:83:56:
                    31:6a:e9:f1:40:6a:91:37:29:12:16:21:09:8a:77:
                    71:39:20:27:03:12:ba:ab:fc:06:a9:c6:77:ce:f1:
                    41:4d:c5:55:92:38:b5:bb:64:07:e2:b3:8c:3f:73:
                    cf:c4:02:0c:90:1f:0e:36:47:47:4d:ca:35:0e:66:
                    c4:e8:17:c3:1c:0a:c3:a9:46:31:a8:95:25:3c:69:
                    4c:aa:b2:9b:dd:f0:85:89:3d:de:5d:e8:70:47:b9:
                    e5:cd
                Exponent: 65537 (0x10001)
        X509v3 extensions:
            X509v3 Basic Constraints: 
                CA:FALSE
            Netscape Comment: 
                OpenSSL Generated Certificate
            X509v3 Subject Key Identifier: 
                9F:14:77:BF:3F:3A:B6:CA:38:82:42:48:16:2C:DA:D0:CB:5E:87:D8
            X509v3 Authority Key Identifier: 
                keyid:7B:9A:DA:8F:90:99:4E:52:D2:AC:DB:B3:03:52:CA:87:A6:0D:3E:0D

    Signature Algorithm: sha1WithRSAEncryption
        70:2c:29:17:f6:55:3b:b0:f2:82:53:db:06:ac:01:8c:2c:40:
        c2:59:30:58:78:af:17:d7:39:4b:87:f2:df:ed:cf:93:80:d5:
        05:ca:81:13:84:bc:d6:87:15:01:7e:45:f8:27:d9:3e:46:0a:
        a5:92:0d:ce:71:25:b4:40:6b:17:16:e7:fd:d4:30:8c:9f:df:
        8a:f7:53:4f:91:e7:0d:ea:b7:06:03:f4:48:8b:6d:09:ea:cf:
        58:99:55:89:58:05:dc:8a:25:05:55:8d:19:65:87:f3:be:32:
        b5:98:42:01:63:80:9b:25:ab:50:88:4b:e1:6d:09:7f:6a:27:
        7c:66:07:64:ac:a6:c1:d6:73:e6:05:30:4e:32:e9:7d:67:51:
        60:20:14:5e:b7:3c:71:c7:02:85:aa:57:16:66:56:3a:33:ce:
        85:ae:62:58:41:5c:66:88:ae:e6:3e:a7:7b:b2:e6:9c:7b:b9:
        29:2e:fb:0c:de:c4:73:5c:40:cf:a9:27:81:f1:f0:5a:a2:a5:
        71:0a:78:2c:77:1d:0c:88:fb:9e:49:8c:38:27:49:83:b5:14:
        53:4f:df:74:0b:18:02:15:e6:f2:d2:67:a6:f4:4b:19:ec:23:
        01:04:52:5b:43:8e:0d:8e:37:c6:a1:9a:21:f4:b5:ca:c6:21:
        4f:31:8b:54
-----BEGIN CERTIFICATE-----
MIIEQDCCAyigAwIBAgIJAIz+EYMBU6Z/MA0GCSqGSIb3DQEBBQUAMIGiMQswCQYD
VQQGEwJDQTELMAkGA1UECBMCQkMxEjAQBgNVBAcTCVZhbmNvdXZlcjEWMBQGA1UE
ChMNd3d3LmN1Y2JjLmNvbTEUMBIGA1UECxQLY29tbW9uc19zc2wxHTAbBgNVBAMU
FGRlbW9faW50ZXJtZWRpYXRlX2NhMSUwIwYJKoZIhvcNAQkBFhZqdWxpdXNkYXZp
ZXNAZ21haWwuY29tMB4XDTA2MTEwNTIxNTIzN1oXDTA3MTEwNTIxNTIzN1owgZ4x
CzAJBgNVBAYTAkNBMQswCQYDVQQIEwJCQzESMBAGA1UEBxMJVmFuY291dmVyMRYw
FAYDVQQKEw13d3cuY3VjYmMuY29tMRQwEgYDVQQLFAtjb21tb25zX3NzbDEZMBcG
A1UEAxQQZGVtb19jZXJ0aWZpY2F0ZTElMCMGCSqGSIb3DQEJARYWanVsaXVzZGF2
aWVzQGdtYWlsLmNvbTCCASIwDQYJKoZIhvcNAQEBBQADggEPADCCAQoCggEBAMhj
r5aCPoyp0R1iroWAfnEyBMGYWoCidH96yGPFjYLowez5aYKY1IOKTY2BlYho4O84
X244QrZTRl8kQbYtxnGh4gSCD+Z8gjZ/gMvLUlhqOb+WXPAUHMB39GRyzerA/Ztr
lUqf+lKo0uWcocxeRc771KN8cPH3nHZ0rV0Hx4ZAZy6U4xxObe4rtSVY07hNKXAb
2odnVqgzcYiDkLV8ilvEmoNWMWrp8UBqkTcpEhYhCYp3cTkgJwMSuqv8BqnGd87x
QU3FVZI4tbtkB+KzjD9zz8QCDJAfDjZHR03KNQ5mxOgXwxwKw6lGMaiVJTxpTKqy
m93whYk93l3ocEe55c0CAwEAAaN7MHkwCQYDVR0TBAIwADAsBglghkgBhvhCAQ0E
HxYdT3BlblNTTCBHZW5lcmF0ZWQgQ2VydGlmaWNhdGUwHQYDVR0OBBYEFJ8Ud78/
OrbKOIJCSBYs2tDLXofYMB8GA1UdIwQYMBaAFHua2o+QmU5S0qzbswNSyoemDT4N
MA0GCSqGSIb3DQEBBQUAA4IBAQBwLCkX9lU7sPKCU9sGrAGMLEDCWTBYeK8X1zlL
h/Lf7c+TgNUFyoEThLzWhxUBfkX4J9k+Rgqlkg3OcSW0QGsXFuf91DCMn9+K91NP
kecN6rcGA/RIi20J6s9YmVWJWAXciiUFVY0ZZYfzvjK1mEIBY4CbJatQiEvhbQl/
aid8ZgdkrKbB1nPmBTBOMul9Z1FgIBRetzxxxwKFqlcWZlY6M86FrmJYQVxmiK7m
Pqd7suace7kpLvsM3sRzXEDPqSeB8fBaoqVxCngsdx0MiPueSYw4J0mDtRRTT990
CxgCFeby0mem9EsZ7CMBBFJbQ44NjjfGoZoh9LXKxiFPMYtU
-----END CERTIFICATE-----
