Certificate:
    Data:
        Version: 3 (0x2)
        Serial Number:
            8c:fe:11:83:01:53:a6:90
        Signature Algorithm: sha1WithRSAEncryption
        Issuer: C=CA, ST=BC, L=Vancouver, O=www.cucbc.com, OU=commons_ssl, CN=demo_intermediate_ca/emailAddress=juliusdavies@gmail.com
        Validity
            Not Before: Dec 11 15:31:41 2006 GMT
            Not After : Nov  5 15:31:41 2028 GMT
        Subject: C=US, ST=Maryland, L=Forest Hill, O=httpcomponents, OU=test certificates, CN=foo.com/emailAddress=juliusdavies@gmail.com
        Subject Public Key Info:
            Public Key Algorithm: rsaEncryption
            RSA Public Key: (2048 bit)
                Modulus (2048 bit):
                    00:c8:63:af:96:82:3e:8c:a9:d1:1d:62:ae:85:80:
                    7e:71:32:04:c1:98:5a:80:a2:74:7f:7a:c8:63:c5:
                    8d:82:e8:c1:ec:f9:69:82:98:d4:83:8a:4d:8d:81:
                    95:88:68:e0:ef:38:5f:6e:38:42:b6:53:46:5f:24:
                    41:b6:2d:c6:71:a1:e2:04:82:0f:e6:7c:82:36:7f:
                    80:cb:cb:52:58:6a:39:bf:96:5c:f0:14:1c:c0:77:
                    f4:64:72:cd:ea:c0:fd:9b:6b:95:4a:9f:fa:52:a8:
                    d2:e5:9c:a1:cc:5e:45:ce:fb:d4:a3:7c:70:f1:f7:
                    9c:76:74:ad:5d:07:c7:86:40:67:2e:94:e3:1c:4e:
                    6d:ee:2b:b5:25:58:d3:b8:4d:29:70:1b:da:87:67:
                    56:a8:33:71:88:83:90:b5:7c:8a:5b:c4:9a:83:56:
                    31:6a:e9:f1:40:6a:91:37:29:12:16:21:09:8a:77:
                    71:39:20:27:03:12:ba:ab:fc:06:a9:c6:77:ce:f1:
                    41:4d:c5:55:92:38:b5:bb:64:07:e2:b3:8c:3f:73:
                    cf:c4:02:0c:90:1f:0e:36:47:47:4d:ca:35:0e:66:
                    c4:e8:17:c3:1c:0a:c3:a9:46:31:a8:95:25:3c:69:
                    4c:aa:b2:9b:dd:f0:85:89:3d:de:5d:e8:70:47:b9:
                    e5:cd
                Exponent: 65537 (0x10001)
        X509v3 extensions:
            X509v3 Basic Constraints: 
                CA:FALSE
            Netscape Comment: 
                OpenSSL Generated Certificate
            X509v3 Subject Key Identifier: 
                9F:14:77:BF:3F:3A:B6:CA:38:82:42:48:16:2C:DA:D0:CB:5E:87:D8
            X509v3 Authority Key Identifier: 
                keyid:7B:9A:DA:8F:90:99:4E:52:D2:AC:DB:B3:03:52:CA:87:A6:0D:3E:0D

    Signature Algorithm: sha1WithRSAEncryption
        b7:8d:19:84:c9:ae:ac:40:29:26:89:e5:0b:72:fc:7c:cf:3d:
        5e:b8:29:3d:7d:27:b3:ec:11:2d:92:2f:3e:76:67:cc:5d:ed:
        ca:ee:c1:f4:94:8f:1f:e2:32:51:d2:b6:d2:0a:3a:66:09:02:
        d8:9b:30:b7:37:10:4a:78:93:96:d1:17:23:34:1a:4e:73:62:
        65:18:ef:5a:b9:7b:f6:18:33:f8:21:88:97:12:52:c9:e9:54:
        aa:73:c5:af:0e:29:2f:d0:99:82:09:69:b4:66:06:be:6d:96:
        d1:fc:45:8d:e4:37:84:b4:57:45:f3:5e:42:2e:92:59:35:c6:
        30:89:8c:06:cb:f0:95:43:bc:36:4e:75:e5:1b:e9:ab:69:93:
        b3:fa:8c:2b:f9:c2:fa:27:f6:5e:b1:b7:44:59:f8:e8:4b:5f:
        9c:50:48:44:1f:09:4d:ac:0b:bc:8e:56:76:52:a4:a0:b2:44:
        96:96:16:1d:31:30:0f:f4:23:c7:89:4b:fd:37:b1:5c:4f:9f:
        08:b6:ff:c8:e1:f2:91:10:83:50:62:30:e9:bd:07:31:49:a4:
        d8:6f:d7:6b:e6:c0:78:58:b3:60:96:4e:f3:c4:3b:4c:f3:41:
        f9:d7:c5:6f:8a:14:dc:3f:b1:47:2f:e1:a7:ea:0e:23:e5:f9:
        08:f7:cf:92
-----BEGIN CERTIFICATE-----
MIIERjCCAy6gAwIBAgIJAIz+EYMBU6aQMA0GCSqGSIb3DQEBBQUAMIGiMQswCQYD
VQQGEwJDQTELMAkGA1UECBMCQkMxEjAQBgNVBAcTCVZhbmNvdXZlcjEWMBQGA1UE
ChMNd3d3LmN1Y2JjLmNvbTEUMBIGA1UECxQLY29tbW9uc19zc2wxHTAbBgNVBAMU
FGRlbW9faW50ZXJtZWRpYXRlX2NhMSUwIwYJKoZIhvcNAQkBFhZqdWxpdXNkYXZp
ZXNAZ21haWwuY29tMB4XDTA2MTIxMTE1MzE0MVoXDTI4MTEwNTE1MzE0MVowgaQx
CzAJBgNVBAYTAlVTMREwDwYDVQQIEwhNYXJ5bGFuZDEUMBIGA1UEBxMLRm9yZXN0
IEhpbGwxFzAVBgNVBAoTDmh0dHBjb21wb25lbnRzMRowGAYDVQQLExF0ZXN0IGNl
cnRpZmljYXRlczEQMA4GA1UEAxMHZm9vLmNvbTElMCMGCSqGSIb3DQEJARYWanVs
aXVzZGF2aWVzQGdtYWlsLmNvbTCCASIwDQYJKoZIhvcNAQEBBQADggEPADCCAQoC
ggEBAMhjr5aCPoyp0R1iroWAfnEyBMGYWoCidH96yGPFjYLowez5aYKY1IOKTY2B
lYho4O84X244QrZTRl8kQbYtxnGh4gSCD+Z8gjZ/gMvLUlhqOb+WXPAUHMB39GRy
zerA/ZtrlUqf+lKo0uWcocxeRc771KN8cPH3nHZ0rV0Hx4ZAZy6U4xxObe4rtSVY
07hNKXAb2odnVqgzcYiDkLV8ilvEmoNWMWrp8UBqkTcpEhYhCYp3cTkgJwMSuqv8
BqnGd87xQU3FVZI4tbtkB+KzjD9zz8QCDJAfDjZHR03KNQ5mxOgXwxwKw6lGMaiV
JTxpTKqym93whYk93l3ocEe55c0CAwEAAaN7MHkwCQYDVR0TBAIwADAsBglghkgB
hvhCAQ0EHxYdT3BlblNTTCBHZW5lcmF0ZWQgQ2VydGlmaWNhdGUwHQYDVR0OBBYE
FJ8Ud78/OrbKOIJCSBYs2tDLXofYMB8GA1UdIwQYMBaAFHua2o+QmU5S0qzbswNS
yoemDT4NMA0GCSqGSIb3DQEBBQUAA4IBAQC3jRmEya6sQCkmieULcvx8zz1euCk9
fSez7BEtki8+dmfMXe3K7sH0lI8f4jJR0rbSCjpmCQLYmzC3NxBKeJOW0RcjNBpO
c2JlGO9auXv2GDP4IYiXElLJ6VSqc8WvDikv0JmCCWm0Zga+bZbR/EWN5DeEtFdF
815CLpJZNcYwiYwGy/CVQ7w2TnXlG+mraZOz+owr+cL6J/ZesbdEWfjoS1+cUEhE
HwlNrAu8jlZ2UqSgskSWlhYdMTAP9CPHiUv9N7FcT58Itv/I4fKREINQYjDpvQcx
SaTYb9dr5sB4WLNglk7zxDtM80H518VvihTcP7FHL+Gn6g4j5fkI98+S
-----END CERTIFICATE-----
