Certificate:
    Data:
        Version: 3 (0x2)
        Serial Number:
            8c:fe:11:83:01:53:a6:92
        Signature Algorithm: sha1WithRSAEncryption
        Issuer: C=CA, ST=BC, L=Vancouver, O=www.cucbc.com, OU=commons_ssl, CN=demo_intermediate_ca/emailAddress=juliusdavies@gmail.com
        Validity
            Not Before: Dec 11 15:38:13 2006 GMT
            Not After : Nov  5 15:38:13 2028 GMT
        Subject: C=US, ST=Maryland, L=Forest Hill, O=httpcomponents, OU=test certificates, CN=foo.com/emailAddress=juliusdavies@gmail.com
        Subject Public Key Info:
            Public Key Algorithm: rsaEncryption
            RSA Public Key: (2048 bit)
                Modulus (2048 bit):
                    00:c8:63:af:96:82:3e:8c:a9:d1:1d:62:ae:85:80:
                    7e:71:32:04:c1:98:5a:80:a2:74:7f:7a:c8:63:c5:
                    8d:82:e8:c1:ec:f9:69:82:98:d4:83:8a:4d:8d:81:
                    95:88:68:e0:ef:38:5f:6e:38:42:b6:53:46:5f:24:
                    41:b6:2d:c6:71:a1:e2:04:82:0f:e6:7c:82:36:7f:
                    80:cb:cb:52:58:6a:39:bf:96:5c:f0:14:1c:c0:77:
                    f4:64:72:cd:ea:c0:fd:9b:6b:95:4a:9f:fa:52:a8:
                    d2:e5:9c:a1:cc:5e:45:ce:fb:d4:a3:7c:70:f1:f7:
                    9c:76:74:ad:5d:07:c7:86:40:67:2e:94:e3:1c:4e:
                    6d:ee:2b:b5:25:58:d3:b8:4d:29:70:1b:da:87:67:
                    56:a8:33:71:88:83:90:b5:7c:8a:5b:c4:9a:83:56:
                    31:6a:e9:f1:40:6a:91:37:29:12:16:21:09:8a:77:
                    71:39:20:27:03:12:ba:ab:fc:06:a9:c6:77:ce:f1:
                    41:4d:c5:55:92:38:b5:bb:64:07:e2:b3:8c:3f:73:
                    cf:c4:02:0c:90:1f:0e:36:47:47:4d:ca:35:0e:66:
                    c4:e8:17:c3:1c:0a:c3:a9:46:31:a8:95:25:3c:69:
                    4c:aa:b2:9b:dd:f0:85:89:3d:de:5d:e8:70:47:b9:
                    e5:cd
                Exponent: 65537 (0x10001)
        X509v3 extensions:
            X509v3 Basic Constraints: 
                CA:FALSE
            Netscape Comment: 
                OpenSSL Generated Certificate
            X509v3 Subject Key Identifier: 
                9F:14:77:BF:3F:3A:B6:CA:38:82:42:48:16:2C:DA:D0:CB:5E:87:D8
            X509v3 Authority Key Identifier: 
                keyid:7B:9A:DA:8F:90:99:4E:52:D2:AC:DB:B3:03:52:CA:87:A6:0D:3E:0D

            X509v3 Subject Alternative Name: 
                DNS:bar.com, DNS:花子.co.jp
    Signature Algorithm: sha1WithRSAEncryption
        5e:66:ce:d9:21:8c:8a:b5:d9:d5:c5:5b:dd:2e:0c:32:48:43:
        ce:13:8a:41:49:78:a2:ed:76:2f:d1:0f:50:52:f1:bf:fb:e8:
        05:19:08:7c:f4:78:40:07:30:35:99:55:23:1f:97:49:4d:0a:
        92:2c:5b:d1:7e:a4:c7:a8:ba:71:4b:14:96:a8:c1:e7:bd:13:
        38:70:f0:64:21:1a:7f:5e:53:0a:3e:55:da:75:8b:49:2c:f4:
        e0:a5:b8:2f:ba:50:35:89:c9:02:f4:4c:25:35:85:a7:a3:06:
        78:bb:19:df:b0:c8:21:5b:81:ec:90:1a:9a:57:e3:e7:43:c6:
        6f:cb:72:f4:d7:67:3b:0a:0e:26:28:a4:b9:a5:bd:47:75:1b:
        a2:0f:6a:29:67:e1:dc:ef:b8:11:40:bb:ed:58:d4:bc:8d:0b:
        dd:fe:24:db:87:a7:ee:bd:32:9f:00:e1:68:5f:0d:b6:b1:62:
        0a:1d:8a:e6:84:22:11:b2:15:0d:a2:11:97:bf:9d:26:da:8f:
        b5:c3:da:16:99:0e:83:92:ae:e5:0a:37:d7:7d:40:78:c0:86:
        e0:80:98:e9:c8:4b:5b:36:a0:6d:8f:83:02:db:1e:6b:7e:c2:
        ca:2a:a4:e8:2a:63:44:ee:91:44:82:ac:1e:f3:ff:c0:6a:bd:
        5b:f9:08:fe
-----BEGIN CERTIFICATE-----
MIIEajCCA1KgAwIBAgIJAIz+EYMBU6aSMA0GCSqGSIb3DQEBBQUAMIGiMQswCQYD
VQQGEwJDQTELMAkGA1UECBMCQkMxEjAQBgNVBAcTCVZhbmNvdXZlcjEWMBQGA1UE
ChMNd3d3LmN1Y2JjLmNvbTEUMBIGA1UECxQLY29tbW9uc19zc2wxHTAbBgNVBAMU
FGRlbW9faW50ZXJtZWRpYXRlX2NhMSUwIwYJKoZIhvcNAQkBFhZqdWxpdXNkYXZp
ZXNAZ21haWwuY29tMB4XDTA2MTIxMTE1MzgxM1oXDTI4MTEwNTE1MzgxM1owgaQx
CzAJBgNVBAYTAlVTMREwDwYDVQQIEwhNYXJ5bGFuZDEUMBIGA1UEBxMLRm9yZXN0
IEhpbGwxFzAVBgNVBAoTDmh0dHBjb21wb25lbnRzMRowGAYDVQQLExF0ZXN0IGNl
cnRpZmljYXRlczEQMA4GA1UEAxMHZm9vLmNvbTElMCMGCSqGSIb3DQEJARYWanVs
aXVzZGF2aWVzQGdtYWlsLmNvbTCCASIwDQYJKoZIhvcNAQEBBQADggEPADCCAQoC
ggEBAMhjr5aCPoyp0R1iroWAfnEyBMGYWoCidH96yGPFjYLowez5aYKY1IOKTY2B
lYho4O84X244QrZTRl8kQbYtxnGh4gSCD+Z8gjZ/gMvLUlhqOb+WXPAUHMB39GRy
zerA/ZtrlUqf+lKo0uWcocxeRc771KN8cPH3nHZ0rV0Hx4ZAZy6U4xxObe4rtSVY
07hNKXAb2odnVqgzcYiDkLV8ilvEmoNWMWrp8UBqkTcpEhYhCYp3cTkgJwMSuqv8
BqnGd87xQU3FVZI4tbtkB+KzjD9zz8QCDJAfDjZHR03KNQ5mxOgXwxwKw6lGMaiV
JTxpTKqym93whYk93l3ocEe55c0CAwEAAaOBnjCBmzAJBgNVHRMEAjAAMCwGCWCG
SAGG+EIBDQQfFh1PcGVuU1NMIEdlbmVyYXRlZCBDZXJ0aWZpY2F0ZTAdBgNVHQ4E
FgQUnxR3vz86tso4gkJIFiza0Mteh9gwHwYDVR0jBBgwFoAUe5raj5CZTlLSrNuz
A1LKh6YNPg0wIAYDVR0RBBkwF4IHYmFyLmNvbYIM6Iqx5a2QLmNvLmpwMA0GCSqG
SIb3DQEBBQUAA4IBAQBeZs7ZIYyKtdnVxVvdLgwySEPOE4pBSXii7XYv0Q9QUvG/
++gFGQh89HhABzA1mVUjH5dJTQqSLFvRfqTHqLpxSxSWqMHnvRM4cPBkIRp/XlMK
PlXadYtJLPTgpbgvulA1ickC9EwlNYWnowZ4uxnfsMghW4HskBqaV+PnQ8Zvy3L0
12c7Cg4mKKS5pb1HdRuiD2opZ+Hc77gRQLvtWNS8jQvd/iTbh6fuvTKfAOFoXw22
sWIKHYrmhCIRshUNohGXv50m2o+1w9oWmQ6Dkq7lCjfXfUB4wIbggJjpyEtbNqBt
j4MC2x5rfsLKKqToKmNE7pFEgqwe8//Aar1b+Qj+
-----END CERTIFICATE-----
