Certificate:
    Data:
        Version: 3 (0x2)
        Serial Number:
            8c:fe:11:83:01:53:a6:98
        Signature Algorithm: sha1WithRSAEncryption
        Issuer: C=CA, ST=BC, L=Vancouver, O=www.cucbc.com, OU=commons_ssl, CN=demo_intermediate_ca/emailAddress=juliusdavies@gmail.com
        Validity
            Not Before: Dec 11 16:26:10 2006 GMT
            Not After : Nov  5 16:26:10 2028 GMT
        Subject: C=US, ST=Maryland, L=Forest Hill, O=httpcomponents, OU=test certificates/emailAddress=juliusdavies@gmail.com
        Subject Public Key Info:
            Public Key Algorithm: rsaEncryption
            RSA Public Key: (2048 bit)
                Modulus (2048 bit):
                    00:c8:63:af:96:82:3e:8c:a9:d1:1d:62:ae:85:80:
                    7e:71:32:04:c1:98:5a:80:a2:74:7f:7a:c8:63:c5:
                    8d:82:e8:c1:ec:f9:69:82:98:d4:83:8a:4d:8d:81:
                    95:88:68:e0:ef:38:5f:6e:38:42:b6:53:46:5f:24:
                    41:b6:2d:c6:71:a1:e2:04:82:0f:e6:7c:82:36:7f:
                    80:cb:cb:52:58:6a:39:bf:96:5c:f0:14:1c:c0:77:
                    f4:64:72:cd:ea:c0:fd:9b:6b:95:4a:9f:fa:52:a8:
                    d2:e5:9c:a1:cc:5e:45:ce:fb:d4:a3:7c:70:f1:f7:
                    9c:76:74:ad:5d:07:c7:86:40:67:2e:94:e3:1c:4e:
                    6d:ee:2b:b5:25:58:d3:b8:4d:29:70:1b:da:87:67:
                    56:a8:33:71:88:83:90:b5:7c:8a:5b:c4:9a:83:56:
                    31:6a:e9:f1:40:6a:91:37:29:12:16:21:09:8a:77:
                    71:39:20:27:03:12:ba:ab:fc:06:a9:c6:77:ce:f1:
                    41:4d:c5:55:92:38:b5:bb:64:07:e2:b3:8c:3f:73:
                    cf:c4:02:0c:90:1f:0e:36:47:47:4d:ca:35:0e:66:
                    c4:e8:17:c3:1c:0a:c3:a9:46:31:a8:95:25:3c:69:
                    4c:aa:b2:9b:dd:f0:85:89:3d:de:5d:e8:70:47:b9:
                    e5:cd
                Exponent: 65537 (0x10001)
        X509v3 extensions:
            X509v3 Basic Constraints: 
                CA:FALSE
            Netscape Comment: 
                OpenSSL Generated Certificate
            X509v3 Subject Key Identifier: 
                9F:14:77:BF:3F:3A:B6:CA:38:82:42:48:16:2C:DA:D0:CB:5E:87:D8
            X509v3 Authority Key Identifier: 
                keyid:7B:9A:DA:8F:90:99:4E:52:D2:AC:DB:B3:03:52:CA:87:A6:0D:3E:0D

            X509v3 Subject Alternative Name: 
                DNS:foo.com
    Signature Algorithm: sha1WithRSAEncryption
        8e:5e:fc:a0:c8:f3:15:db:0c:cb:a1:75:b0:68:3f:22:43:bc:
        b4:5e:72:52:03:e0:15:8a:ec:e3:5c:b3:01:c6:bb:21:0b:ba:
        1b:da:ad:14:32:73:ff:b7:a1:87:ff:47:a0:6f:a8:a8:20:88:
        1c:fb:88:3a:64:bb:49:dd:30:9e:4c:89:63:b6:34:e2:35:57:
        21:bd:da:e9:fe:80:80:19:04:14:fd:67:39:3d:33:ea:48:d3:
        ee:f9:00:e4:b2:76:cb:73:22:0d:c5:ee:44:d3:12:b5:ae:4f:
        61:59:eb:5f:c6:99:ca:2a:95:50:d8:b8:d2:97:ae:67:64:7c:
        98:05:12:06:f5:a0:0f:bc:f6:a9:68:45:f1:88:03:6f:bc:16:
        68:58:e0:e7:72:37:ea:f5:8a:9f:dd:19:12:d8:b7:c0:d0:b0:
        a8:05:6a:8b:13:3e:27:4a:89:99:04:ad:80:07:39:de:2d:9a:
        4c:cb:c0:42:ed:c0:de:c9:ef:1f:f3:c7:4c:1a:3e:e5:42:fb:
        da:7f:52:d6:46:72:34:2b:15:7f:54:28:9f:c8:ca:4e:24:6b:
        88:43:3e:7c:c1:65:72:04:0f:db:ce:04:04:5c:d8:1f:20:97:
        15:bf:4e:fe:13:23:2b:6f:ba:99:8f:5e:b8:c0:75:53:56:85:
        17:33:3f:06
-----BEGIN CERTIFICATE-----
MIIESjCCAzKgAwIBAgIJAIz+EYMBU6aYMA0GCSqGSIb3DQEBBQUAMIGiMQswCQYD
VQQGEwJDQTELMAkGA1UECBMCQkMxEjAQBgNVBAcTCVZhbmNvdXZlcjEWMBQGA1UE
ChMNd3d3LmN1Y2JjLmNvbTEUMBIGA1UECxQLY29tbW9uc19zc2wxHTAbBgNVBAMU
FGRlbW9faW50ZXJtZWRpYXRlX2NhMSUwIwYJKoZIhvcNAQkBFhZqdWxpdXNkYXZp
ZXNAZ21haWwuY29tMB4XDTA2MTIxMTE2MjYxMFoXDTI4MTEwNTE2MjYxMFowgZIx
CzAJBgNVBAYTAlVTMREwDwYDVQQIDAhNYXJ5bGFuZDEUMBIGA1UEBwwLRm9yZXN0
IEhpbGwxFzAVBgNVBAoMDmh0dHBjb21wb25lbnRzMRowGAYDVQQLDBF0ZXN0IGNl
cnRpZmljYXRlczElMCMGCSqGSIb3DQEJARYWanVsaXVzZGF2aWVzQGdtYWlsLmNv
bTCCASIwDQYJKoZIhvcNAQEBBQADggEPADCCAQoCggEBAMhjr5aCPoyp0R1iroWA
fnEyBMGYWoCidH96yGPFjYLowez5aYKY1IOKTY2BlYho4O84X244QrZTRl8kQbYt
xnGh4gSCD+Z8gjZ/gMvLUlhqOb+WXPAUHMB39GRyzerA/ZtrlUqf+lKo0uWcocxe
Rc771KN8cPH3nHZ0rV0Hx4ZAZy6U4xxObe4rtSVY07hNKXAb2odnVqgzcYiDkLV8
ilvEmoNWMWrp8UBqkTcpEhYhCYp3cTkgJwMSuqv8BqnGd87xQU3FVZI4tbtkB+Kz
jD9zz8QCDJAfDjZHR03KNQ5mxOgXwxwKw6lGMaiVJTxpTKqym93whYk93l3ocEe5
5c0CAwEAAaOBkDCBjTAJBgNVHRMEAjAAMCwGCWCGSAGG+EIBDQQfFh1PcGVuU1NM
IEdlbmVyYXRlZCBDZXJ0aWZpY2F0ZTAdBgNVHQ4EFgQUnxR3vz86tso4gkJIFiza
0Mteh9gwHwYDVR0jBBgwFoAUe5raj5CZTlLSrNuzA1LKh6YNPg0wEgYDVR0RBAsw
CYIHZm9vLmNvbTANBgkqhkiG9w0BAQUFAAOCAQEAjl78oMjzFdsMy6F1sGg/IkO8
tF5yUgPgFYrs41yzAca7IQu6G9qtFDJz/7ehh/9HoG+oqCCIHPuIOmS7Sd0wnkyJ
Y7Y04jVXIb3a6f6AgBkEFP1nOT0z6kjT7vkA5LJ2y3MiDcXuRNMSta5PYVnrX8aZ
yiqVUNi40peuZ2R8mAUSBvWgD7z2qWhF8YgDb7wWaFjg53I36vWKn90ZEti3wNCw
qAVqixM+J0qJmQStgAc53i2aTMvAQu3A3snvH/PHTBo+5UL72n9S1kZyNCsVf1Qo
n8jKTiRriEM+fMFlcgQP284EBFzYHyCXFb9O/hMjK2+6mY9euMB1U1aFFzM/Bg==
-----END CERTIFICATE-----
