Certificate:
    Data:
        Version: 3 (0x2)
        Serial Number:
            8c:fe:11:83:01:53:a6:97
        Signature Algorithm: sha1WithRSAEncryption
        Issuer: C=CA, ST=BC, L=Vancouver, O=www.cucbc.com, OU=commons_ssl, CN=demo_intermediate_ca/emailAddress=juliusdavies@gmail.com
        Validity
            Not Before: Dec 11 16:19:45 2006 GMT
            Not After : Nov  5 16:19:45 2028 GMT
        Subject: C=US, ST=Maryland, L=Forest Hill, O=httpcomponents, OU=test certificates, CN=foo.com, CN=bar.com, CN=\xE8\x8A\xB1\xE5\xAD\x90.co.jp/emailAddress=juliusdavies@gmail.com
        Subject Public Key Info:
            Public Key Algorithm: rsaEncryption
            RSA Public Key: (2048 bit)
                Modulus (2048 bit):
                    00:c8:63:af:96:82:3e:8c:a9:d1:1d:62:ae:85:80:
                    7e:71:32:04:c1:98:5a:80:a2:74:7f:7a:c8:63:c5:
                    8d:82:e8:c1:ec:f9:69:82:98:d4:83:8a:4d:8d:81:
                    95:88:68:e0:ef:38:5f:6e:38:42:b6:53:46:5f:24:
                    41:b6:2d:c6:71:a1:e2:04:82:0f:e6:7c:82:36:7f:
                    80:cb:cb:52:58:6a:39:bf:96:5c:f0:14:1c:c0:77:
                    f4:64:72:cd:ea:c0:fd:9b:6b:95:4a:9f:fa:52:a8:
                    d2:e5:9c:a1:cc:5e:45:ce:fb:d4:a3:7c:70:f1:f7:
                    9c:76:74:ad:5d:07:c7:86:40:67:2e:94:e3:1c:4e:
                    6d:ee:2b:b5:25:58:d3:b8:4d:29:70:1b:da:87:67:
                    56:a8:33:71:88:83:90:b5:7c:8a:5b:c4:9a:83:56:
                    31:6a:e9:f1:40:6a:91:37:29:12:16:21:09:8a:77:
                    71:39:20:27:03:12:ba:ab:fc:06:a9:c6:77:ce:f1:
                    41:4d:c5:55:92:38:b5:bb:64:07:e2:b3:8c:3f:73:
                    cf:c4:02:0c:90:1f:0e:36:47:47:4d:ca:35:0e:66:
                    c4:e8:17:c3:1c:0a:c3:a9:46:31:a8:95:25:3c:69:
                    4c:aa:b2:9b:dd:f0:85:89:3d:de:5d:e8:70:47:b9:
                    e5:cd
                Exponent: 65537 (0x10001)
        X509v3 extensions:
            X509v3 Basic Constraints: 
                CA:FALSE
            Netscape Comment: 
                OpenSSL Generated Certificate
            X509v3 Subject Key Identifier: 
                9F:14:77:BF:3F:3A:B6:CA:38:82:42:48:16:2C:DA:D0:CB:5E:87:D8
            X509v3 Authority Key Identifier: 
                keyid:7B:9A:DA:8F:90:99:4E:52:D2:AC:DB:B3:03:52:CA:87:A6:0D:3E:0D

    Signature Algorithm: sha1WithRSAEncryption
        6b:99:6f:c6:a2:d4:d3:b6:8f:8b:f7:cb:d4:cb:66:f7:79:b3:
        4b:e1:e7:f4:c4:ee:7e:d1:5f:ef:14:cb:7e:ce:2f:99:3b:c7:
        d9:ed:d2:63:35:4f:20:0a:c6:50:9c:63:ef:61:e9:fa:ee:7b:
        c3:1e:99:92:08:2d:22:2f:32:bb:73:71:ca:8d:cf:45:75:58:
        a8:00:f8:ea:df:b9:4a:da:6e:69:fe:0b:11:c5:e6:0a:72:ea:
        0d:50:b3:62:23:55:85:80:e5:fe:c5:44:e9:ff:27:e0:1d:f2:
        02:58:73:56:b3:39:60:8b:42:a4:b2:7e:93:51:2d:2b:d8:12:
        b8:90:14:45:7a:dd:7b:e4:27:c2:6b:1b:ad:9b:fb:63:93:da:
        5a:93:e0:e3:b4:ee:04:8f:7a:da:69:76:54:9a:f0:d0:52:28:
        fe:80:ae:8f:51:21:7d:59:8d:46:50:4a:94:05:09:fa:34:d8:
        d3:b4:b8:d4:43:3d:47:49:c7:68:6e:c9:c7:4d:6f:e0:17:1d:
        a3:bb:79:77:af:0c:b2:7e:42:7a:88:98:8c:f1:5a:26:3a:cc:
        b3:9d:ce:38:c8:54:13:24:2c:79:a7:3f:b4:a3:19:24:37:5c:
        0e:01:ca:b4:0e:c5:f3:94:4f:22:f2:13:b3:6e:7a:68:47:a6:
        9b:90:3f:11
-----BEGIN CERTIFICATE-----
MIIEbzCCA1egAwIBAgIJAIz+EYMBU6aXMA0GCSqGSIb3DQEBBQUAMIGiMQswCQYD
VQQGEwJDQTELMAkGA1UECBMCQkMxEjAQBgNVBAcTCVZhbmNvdXZlcjEWMBQGA1UE
ChMNd3d3LmN1Y2JjLmNvbTEUMBIGA1UECxQLY29tbW9uc19zc2wxHTAbBgNVBAMU
FGRlbW9faW50ZXJtZWRpYXRlX2NhMSUwIwYJKoZIhvcNAQkBFhZqdWxpdXNkYXZp
ZXNAZ21haWwuY29tMB4XDTA2MTIxMTE2MTk0NVoXDTI4MTEwNTE2MTk0NVowgc0x
CzAJBgNVBAYTAlVTMREwDwYDVQQIDAhNYXJ5bGFuZDEUMBIGA1UEBwwLRm9yZXN0
IEhpbGwxFzAVBgNVBAoMDmh0dHBjb21wb25lbnRzMRowGAYDVQQLDBF0ZXN0IGNl
cnRpZmljYXRlczEQMA4GA1UEAwwHZm9vLmNvbTEQMA4GA1UEAwwHYmFyLmNvbTEV
MBMGA1UEAwwM6Iqx5a2QLmNvLmpwMSUwIwYJKoZIhvcNAQkBFhZqdWxpdXNkYXZp
ZXNAZ21haWwuY29tMIIBIjANBgkqhkiG9w0BAQEFAAOCAQ8AMIIBCgKCAQEAyGOv
loI+jKnRHWKuhYB+cTIEwZhagKJ0f3rIY8WNgujB7PlpgpjUg4pNjYGViGjg7zhf
bjhCtlNGXyRBti3GcaHiBIIP5nyCNn+Ay8tSWGo5v5Zc8BQcwHf0ZHLN6sD9m2uV
Sp/6UqjS5ZyhzF5FzvvUo3xw8fecdnStXQfHhkBnLpTjHE5t7iu1JVjTuE0pcBva
h2dWqDNxiIOQtXyKW8Sag1YxaunxQGqRNykSFiEJindxOSAnAxK6q/wGqcZ3zvFB
TcVVkji1u2QH4rOMP3PPxAIMkB8ONkdHTco1DmbE6BfDHArDqUYxqJUlPGlMqrKb
3fCFiT3eXehwR7nlzQIDAQABo3sweTAJBgNVHRMEAjAAMCwGCWCGSAGG+EIBDQQf
Fh1PcGVuU1NMIEdlbmVyYXRlZCBDZXJ0aWZpY2F0ZTAdBgNVHQ4EFgQUnxR3vz86
tso4gkJIFiza0Mteh9gwHwYDVR0jBBgwFoAUe5raj5CZTlLSrNuzA1LKh6YNPg0w
DQYJKoZIhvcNAQEFBQADggEBAGuZb8ai1NO2j4v3y9TLZvd5s0vh5/TE7n7RX+8U
y37OL5k7x9nt0mM1TyAKxlCcY+9h6frue8MemZIILSIvMrtzccqNz0V1WKgA+Orf
uUrabmn+CxHF5gpy6g1Qs2IjVYWA5f7FROn/J+Ad8gJYc1azOWCLQqSyfpNRLSvY
EriQFEV63XvkJ8JrG62b+2OT2lqT4OO07gSPetppdlSa8NBSKP6Aro9RIX1ZjUZQ
SpQFCfo02NO0uNRDPUdJx2huycdNb+AXHaO7eXevDLJ+QnqImIzxWiY6zLOdzjjI
VBMkLHmnP7SjGSQ3XA4ByrQOxfOUTyLyE7NuemhHppuQPxE=
-----END CERTIFICATE-----
