Certificate:
    Data:
        Version: 3 (0x2)
        Serial Number: 537462053 (0x20090525)
        Signature Algorithm: dsaWithSHA1
        Issuer: C=CA, ST=BC, O=juliusdavies.ca, OU=not-yet-commons-ssl, CN=dsa-intermediate/emailAddress=juliusdavies@gmail.com
        Validity
            Not Before: May 25 21:44:31 2009 GMT
            Not After : May 25 21:44:31 2049 GMT
        Subject: C=CA, ST=BC, O=juliusdavies.ca, OU=not-yet-commons-ssl, CN=test/emailAddress=juliusdavies@gmail.com
        Subject Public Key Info:
            Public Key Algorithm: rsaEncryption
            RSA Public Key: (2048 bit)
                Modulus (2048 bit):
                    00:c8:63:af:96:82:3e:8c:a9:d1:1d:62:ae:85:80:
                    7e:71:32:04:c1:98:5a:80:a2:74:7f:7a:c8:63:c5:
                    8d:82:e8:c1:ec:f9:69:82:98:d4:83:8a:4d:8d:81:
                    95:88:68:e0:ef:38:5f:6e:38:42:b6:53:46:5f:24:
                    41:b6:2d:c6:71:a1:e2:04:82:0f:e6:7c:82:36:7f:
                    80:cb:cb:52:58:6a:39:bf:96:5c:f0:14:1c:c0:77:
                    f4:64:72:cd:ea:c0:fd:9b:6b:95:4a:9f:fa:52:a8:
                    d2:e5:9c:a1:cc:5e:45:ce:fb:d4:a3:7c:70:f1:f7:
                    9c:76:74:ad:5d:07:c7:86:40:67:2e:94:e3:1c:4e:
                    6d:ee:2b:b5:25:58:d3:b8:4d:29:70:1b:da:87:67:
                    56:a8:33:71:88:83:90:b5:7c:8a:5b:c4:9a:83:56:
                    31:6a:e9:f1:40:6a:91:37:29:12:16:21:09:8a:77:
                    71:39:20:27:03:12:ba:ab:fc:06:a9:c6:77:ce:f1:
                    41:4d:c5:55:92:38:b5:bb:64:07:e2:b3:8c:3f:73:
                    cf:c4:02:0c:90:1f:0e:36:47:47:4d:ca:35:0e:66:
                    c4:e8:17:c3:1c:0a:c3:a9:46:31:a8:95:25:3c:69:
                    4c:aa:b2:9b:dd:f0:85:89:3d:de:5d:e8:70:47:b9:
                    e5:cd
                Exponent: 65537 (0x10001)
        X509v3 extensions:
            X509v3 Basic Constraints: 
                CA:FALSE
            Netscape Comment: 
                OpenSSL Generated Certificate
            X509v3 Subject Key Identifier: 
                9F:14:77:BF:3F:3A:B6:CA:38:82:42:48:16:2C:DA:D0:CB:5E:87:D8
            X509v3 Authority Key Identifier: 
                keyid:94:A7:CC:B9:AB:D7:48:81:B3:3A:71:6E:2B:F4:24:FE:2A:A4:C0:39

    Signature Algorithm: dsaWithSHA1
        30:2d:02:15:00:86:ec:d5:ef:f1:75:60:a2:09:36:40:ff:ca:
        83:67:6a:08:5d:d4:1e:02:14:51:6c:df:41:80:43:74:2a:1c:
        48:c2:08:85:5b:9b:7d:07:46:6b:84
-----BEGIN CERTIFICATE-----
MIIDPDCCAvugAwIBAgIEIAkFJTAJBgcqhkjOOAQDMIGUMQswCQYDVQQGEwJDQTEL
MAkGA1UECBMCQkMxGDAWBgNVBAoTD2p1bGl1c2Rhdmllcy5jYTEcMBoGA1UECxMT
bm90LXlldC1jb21tb25zLXNzbDEZMBcGA1UEAxMQZHNhLWludGVybWVkaWF0ZTEl
MCMGCSqGSIb3DQEJARYWanVsaXVzZGF2aWVzQGdtYWlsLmNvbTAeFw0wOTA1MjUy
MTQ0MzFaFw00OTA1MjUyMTQ0MzFaMIGIMQswCQYDVQQGEwJDQTELMAkGA1UECBMC
QkMxGDAWBgNVBAoTD2p1bGl1c2Rhdmllcy5jYTEcMBoGA1UECxMTbm90LXlldC1j
b21tb25zLXNzbDENMAsGA1UEAxMEdGVzdDElMCMGCSqGSIb3DQEJARYWanVsaXVz
ZGF2aWVzQGdtYWlsLmNvbTCCASIwDQYJKoZIhvcNAQEBBQADggEPADCCAQoCggEB
AMhjr5aCPoyp0R1iroWAfnEyBMGYWoCidH96yGPFjYLowez5aYKY1IOKTY2BlYho
4O84X244QrZTRl8kQbYtxnGh4gSCD+Z8gjZ/gMvLUlhqOb+WXPAUHMB39GRyzerA
/ZtrlUqf+lKo0uWcocxeRc771KN8cPH3nHZ0rV0Hx4ZAZy6U4xxObe4rtSVY07hN
KXAb2odnVqgzcYiDkLV8ilvEmoNWMWrp8UBqkTcpEhYhCYp3cTkgJwMSuqv8BqnG
d87xQU3FVZI4tbtkB+KzjD9zz8QCDJAfDjZHR03KNQ5mxOgXwxwKw6lGMaiVJTxp
TKqym93whYk93l3ocEe55c0CAwEAAaN7MHkwCQYDVR0TBAIwADAsBglghkgBhvhC
AQ0EHxYdT3BlblNTTCBHZW5lcmF0ZWQgQ2VydGlmaWNhdGUwHQYDVR0OBBYEFJ8U
d78/OrbKOIJCSBYs2tDLXofYMB8GA1UdIwQYMBaAFJSnzLmr10iBszpxbiv0JP4q
pMA5MAkGByqGSM44BAMDMAAwLQIVAIbs1e/xdWCiCTZA/8qDZ2oIXdQeAhRRbN9B
gEN0KhxIwgiFW5t9B0ZrhA==
-----END CERTIFICATE-----
